(lp1
S'accountant systems'
p2
aS'acquisition management intern'
p3
aS'actuarial analyst'
p4
aS'actuary'
p5
aS'administrative generalist/specialist'
p6
aS'affordable housing specialist'
p7
aS'analyst'
p8
aS'appraiser'
p9
aS'archaeologist'
p10
aS'area systems coordinator'
p11
aS'asylum or immigration officer'
p12
aS'attorney/law clerk'
p13
aS'audience analyst'
p14
aS'audit resolution follow up'
p15
aS'auditor'
p16
aS'behavioral scientist'
p17
aS'biologist, fishery'
p18
aS'biologist, marine'
p19
aS'biologist, wildlife'
p20
aS'budget analyst'
p21
aS'budget specialist'
p22
aS'business administration'
p23
aS'officer'
p24
aS'chemical engineer'
p25
aS'tech head'
p26
aS'citizen services specialist'
p27
aS'civil engineer'
p28
aS'civil penalties specialist'
p29
aS'civil/mechanical/structural'
p30
aS'engineer'
p31
aS'communications specialist'
p32
aS'community and intergovernmental'
p33
aS'program specialist'
p34
aS'community planner'
p35
aS'community planning\\development'
p36
aS'specialist'
p37
aS'community services program'
p38
aS'compliance specialist'
p39
aS'computer engineer'
p40
aS'computer programmer/analyst'
p41
aS'computer scientist'
p42
aS'computer specialist'
p43
aS'consumer safety officer'
p44
aS'contract specialist'
p45
aS'contract specialist/grants'
p46
aS'management specialist'
p47
aS'corporate management analyst'
p48
aS'cost account'
p49
aS'criminal enforcement analyst'
p50
aS'criminal investigator'
p51
aS'customer account manager'
p52
aS'customer acct mgr\\specialist'
p53
aS'democracy specialist'
p54
aS'desk officer'
p55
aS'disaster operations specialist'
p56
aS'disbursing specialist'
p57
aS'ecologist'
p58
aS'economist'
p59
aS'economist, financial'
p60
aS'education specialist'
p61
aS'electrical engineer'
p62
aS'electronics engineer'
p63
aS'emergency management specialist'
p64
aS'employee and management'
p65
aS'development specialist'
p66
aS'employee development specialist'
p67
aS'employee relations specialist'
p68
aS'energy and environmental policy'
p69
aS'energy program specialist'
p70
aS'engineer'
p71
aS'environmental engineer'
p72
aS'environmental planning and policy'
p73
aS'environmental protection specialist'
p74
aS'environmental specialist'
p75
aS'epidemiologist'
p76
aS'equal employment opportunity'
p77
aS'equal opportunity specialist'
p78
aS'ethics program specialist'
p79
aS'evaluation and technical services'
p80
aS'generalist'
p81
aS'evaluator'
p82
aS'executive analyst'
p83
aS'facilities analyst'
p84
aS'facility specialist'
p85
aS'federal retirement benefits'
p86
aS'field management assistant'
p87
aS'field office supervisor'
p88
aS'financial management specialist'
p89
aS'financial legislative specialist'
p90
aS'financial specialist'
p91
aS'financial systems analyst'
p92
aS'financial transactions examination'
p93
aS'food safety coordinator'
p94
aS'food technologist'
p95
aS'foreign affairs officer'
p96
aS'foreign affairs specialist'
p97
aS'foreign assets control intelligence'
p98
aS'foreign assets control terrorist'
p99
aS'program analyst'
p100
aS'functional area analyst'
p101
aS'general engineer'
p102
aS'geographer'
p103
aS'geographical information systems/'
p104
aS'computer aided'
p105
aS'geophysicist'
p106
aS'grants program specialist'
p107
aS'grants specialist'
p108
aS'hazard mitigation specialist'
p109
aS'hazardous waste generator'
p110
aS'initiative specialist'
p111
aS'health communications specialist'
p112
aS'health educator'
p113
aS'health insurance specialist'
p114
aS'health scientist'
p115
aS'health systems specialist'
p116
aS'hospital finance associate'
p117
aS'housing program specialist'
p118
aS'housing project manager'
p119
aS'human resources advisor\\'
p120
aS'consultant'
p121
aS'human resources consultant'
p122
aS'human resources development'
p123
aS'human resources evaluator'
p124
aS'human resources representative'
p125
aS'human resources specialist'
p126
aS'hydraulic engineer'
p127
aS'immigration officer'
p128
aS'import policy analyst'
p129
aS'industrial hygienist'
p130
aS'information management specialist'
p131
aS'information research specialist'
p132
aS'information resource management'
p133
aS'information technology policy'
p134
aS'information technology security'
p135
aS'assistant'
p136
aS'information technology specialist'
p137
aS'inspector'
p138
aS'instructional systems design'
p139
aS'instructions methods specialist'
p140
aS'insurance marketing specialist'
p141
aS'insurance specialist'
p142
aS'intelligence analyst'
p143
aS'intelligence operations specialist'
p144
aS'intelligence research specialist'
p145
aS'intelligence specialist'
p146
aS'internal program specialist'
p147
aS'internal revenue agent'
p148
aS'international affairs specialist'
p149
aS'international aviation operations'
p150
aS'international cooperation specialist'
p151
aS'international economist'
p152
aS'international project manager'
p153
aS'international relations specialist'
p154
aS'international trade litigation'
p155
aS'electronic database c'
p156
aS'international trade specialist'
p157
aS'international transportation'
p158
aS'investigator'
p159
aS'junior foreign affairs officer'
p160
aS'labor relations specialist'
p161
aS'learning specialist'
p162
aS'legislative assistant'
p163
aS'legislative analyst'
p164
aS'legislative specialist'
p165
aS'lender approval analyst'
p166
aS'lender monitoring analyst'
p167
aS'licensing examining specialist/offices'
p168
aS'logistics management specialist'
p169
aS'managed care specialist'
p170
aS'management analyst'
p171
aS'management and budget analyst'
p172
aS'management and program analyst'
p173
aS'management intern'
p174
aS'management support analyst'
p175
aS'management support specialist'
p176
aS'manpower analyst'
p177
aS'manpower development specialist'
p178
aS'marketing analyst'
p179
aS'marketing specialist'
p180
aS'mass communications producer'
p181
aS'mathematical statistician'
p182
aS'media relations assistant'
p183
aS'meteorologist'
p184
aS'microbiologist'
p185
aS'mitigation program specialist'
p186
aS'national security training technology'
p187
aS'project manager'
p188
aS'natural resources specialist'
p189
aS'naval architect'
p190
aS'operations officer'
p191
aS'operations planner'
p192
aS'operations research analyst'
p193
aS'operations supervisor'
p194
aS'other'
p195
aS'outdoor recreation planner'
p196
aS'paralegal specialist'
p197
aS'passport/visa specialist'
p198
aS'personnel management specialist'
p199
aS'personnel staffing and'
p200
aS'classification specialist'
p201
aS'petroleum engineer'
p202
aS'physical science officer'
p203
aS'physical scientist, general'
p204
aS'physical security specialist'
p205
aS'policy advisor to the director'
p206
aS'policy analyst'
p207
aS'policy and procedure analyzt'
p208
aS'policy and regulatory analyst'
p209
aS'policy coordinator'
p210
aS'policy/program analyst'
p211
aS'population/family planning'
p212
aS'position classification specialist'
p213
aS'presidential management fellow'
p214
aS'procurement analyst'
p215
aS'procurement specialist'
p216
aS'professional relations outreach'
p217
aS'program administrator'
p218
aS'program and policy analyst'
p219
aS'program evaluation and risk'
p220
aS'program evolution team leader'
p221
aS'program examiner'
p222
aS'program manager'
p223
aS'program operations specialist'
p224
aS'program support specialist'
p225
aS'program/public health analyst'
p226
aS'project analyst'
p227
aS'prototype activities coordinator'
p228
aS'psychologist (general)'
p229
aS'public affairs assistant'
p230
aS'public affairs intern'
p231
aS'public affairs specialist'
p232
aS'public health advisor'
p233
aS'public health analyst'
p234
aS'public health specialist'
p235
aS'public liaison/outreach specialist'
p236
aS'public policy analyst'
p237
aS'quantitative analyst'
p238
aS'real estate appraiser'
p239
aS'realty specialist'
p240
aS'regional management analyst'
p241
aS'regional technician'
p242
aS'regulatory analyst'
p243
aS'regulatory specialist'
p244
aS'research analyst'
p245
aS'restructuring analyst'
p246
aS'risk analyst'
p247
aS'safety and occupational health'
p248
aS'manager'
p249
aS'safety engineer/industrial hygienist'
p250
aS'science program analyst'
p251
aS'securities compliance examiner'
p252
aS'security specialist'
p253
aS'senior management information'
p254
aS'social insurance analyst'
p255
aS'social insurance policy specia'
p256
aS'product head'
p257
aS'social insurance specialist'
p258
aS'social science analyst'
p259
aS'social science research analyst'
p260
aS'social scientist'
p261
aS'south asia desk officer'
p262
aS'special assistant'
p263
aS'special assistant for foreign policy'
p264
aS'strategy'
p265
aS'special assistant to the associate'
p266
aS'director'
p267
aS'special assistant to the chief'
p268
aS'information office'
p269
aS'special assistant to the chief, fbi'
p270
aS'program head '
p271
aS'special assistant to the director'
p272
aS'special emphasis program manager'
p273
aS'special projects analyst'
p274
aS'staff associate'
p275
aS'statistician'
p276
aS'supply systems analyst'
p277
aS'survey or mathematical statistician'
p278
aS'survey statistician'
p279
aS'systems accountant'
p280
aS'systems analyst'
p281
aS'tax law specialist'
p282
aS'team leader'
p283
aS'technical writer/editor'
p284
aS'telecommunications policy analyst'
p285
aS'telecommunications specialist'
p286
aS'traffic management specialist'
p287
aS'training and technical assistant'
p288
aS'training specialist'
p289
aS'transportation analyst'
p290
aS'transportation industry analyst'
p291
aS'transportation program specialist'
p292
aS'urban development specialist'
p293
aS'usability researcher'
p294
aS"veterans' employment specialist"
p295
aS'video production specialist'
p296
aS'visa specialist'
p297
aS'work incentives coordinator'
p298
aS"worker's compensation specialist"
p299
aS'workforce development specialist'
p300
aS'worklife wellness specialist'
p301
aS'writer'
p302
aS'writer/editor'
p303
aS'member technical staff'
p304
aS'application development engineer'
p305
aS'application developer'
p306
aS'developer'
p307
aS'yahoo engineer'
p308
aS'development engineer'
p309
aS'sales engineer'
p310
aS'sales executive'
p311
aS'tele sales executive'
p312
aS'cca'
p313
aS'ccs'
p314
aS'tech support engineer'
p315
aS'technical support engineer'
p316
aS'research scientist'
p317
aS'research engineer'
p318
aS'sr research engineer'
p319
aS'senior engineer'
p320
aS'senior software engineer'
p321
aS'senior systems engineer'
p322
aS'senior system engineer'
p323
aS'technical lead'
p324
aS'tech lead'
p325
aS'technical leader'
p326
aS'team leader-technology'
p327
aS'asm'
p328
aS'area sales manager'
p329
aS'relationship manager'
p330
aS'brand manager'
p331
aS'management trainee'
p332
aS'software developement engineer'
p333
aS'python developer'
p334
aS'java developer'
p335
aS'java development engineer'
p336
aS'python development engineer'
p337
aS'php developer'
p338
aS'ui developer'
p339
aS'ui/ux developer'
p340
aS'ux developer'
p341
aS'open source developer'
p342
aS'open source executive'
p343
aS'assistant manager'
p344
aS'kam'
p345
aS'key account manager'
p346
aS'credit analyst'
p347
aS'business analyst'
p348
aS'product manager'
p349
aS'data engineer'
p350
aS'big data engineer'
p351
aS'big data research engineer'
p352
aS'hadoop engineer'
p353
aS'hadoop administrator'
p354
aS'product engineer'
p355
aS'product development engineer'
p356
aS'programmer'
p357
aS'chairman'
p358
aS'vice chairman'
p359
aS'cio'
p360
aS'managing director'
p361
aS'sr. vice president'
p362
aS'vice president'
p363
aS'general manager'
p364
aS'joint general manager'
p365
aS'deputy general manager'
p366
aS'asst. general manager'
p367
aS'chief manager'
p368
aS'sr. manager'
p369
aS'joint manager'
p370
aS'deputy manager'
p371
aS'asst. manager'
p372
aS'sr. officer'
p373
aS'jr. officer'
p374
aS'sr. associate'
p375
aS'associate'
p376
aS'jr. associate'
p377
aS'coo'
p378
aS'application development'
p379
aS'cto'
p380
aS'ceo'
p381
aS'business analytics'
p382
aS'business intelligence'
p383
aS'business process modeling'
p384
aS'development lead'
p385
aS'team lead'
p386
aS'lead'
p387
aS'tech lead'
p388
aS'technical leader'
p389
aS'customer support'
p390
aS'engineering manager'
p391
aS'data analysis'
p392
aS'data analytics'
p393
aS'data intelligence'
p394
aS'data mining'
p395
aS'data science'
p396
aS'data strategy'
p397
aS'data storage'
p398
aS'design'
p399
aS'desktop support'
p400
aS'development'
p401
aS'documentation'
p402
aS'emerging technologies'
p403
aS'file systems'
p404
aS'flexibility'
p405
aS'h \x96 m'
p406
aS'hardware'
p407
aS'help desk'
p408
aS'implementation'
p409
aS'internet'
p410
aS'information systems'
p411
aS'installation'
p412
aS'integrated technologies'
p413
aS'it optimization'
p414
aS'it security'
p415
aS'it solutions'
p416
aS'it support'
p417
aS'languages'
p418
aS'leadership'
p419
aS'linux'
p420
aS'maintenance'
p421
aS'management'
p422
aS'messaging'
p423
aS'methodology'
p424
aS'metrics'
p425
aS'microsoft office'
p426
aS'mobile applications'
p427
aS'motivation'
p428
aS'n \x96 s'
p429
aS'networks'
p430
aS'network operations'
p431
aS'networking'
p432
aS'operating systems'
p433
aS'operations'
p434
aS'organization'
p435
aS'presentation'
p436
aS'programming'
p437
aS'problem solving'
p438
aS'product development'
p439
aS'product support'
p440
aS'product management'
p441
aS'product training'
p442
aS'project management'
p448
aS'servers'
p449
aS'software development'
p453
aS'systems software'
p457
aS'technology'
p458
aS'technical services'
p459
aS'technical support'
p460
aS'technical writing'
p461
aS'testing'
p462
aS'tools'
p463
aS'training'
p464
aS'troubleshooting'
p465
aS'user experience'
p466
aS'user experience design'
p467
aS'virtualization'
p468
aS'web'
p469
aS'web development'
p470
aS'work independently'
p471
aS'administrative assistant'
p472
aS'administrative coordinator'
p473
aS'administrative director'
p474
aS'administrative services manager'
p475
aS'administrative services officer'
p476
aS'administrative specialist'
p477
aS'administrative support manager'
p478
aS'administrative support supervisor'
p479
aS'administrator'
p480
aS'assistant director'
p481
aS'billing clerk'
p482
aS'client relations manager'
p483
aS'contract administrator'
p484
aS'credit clerk'
p485
aS'data entry'
p486
aS'executive assistant'
p487
aS'executive services administrator'
p488
aS'facility manager'
p489
aS'general office clerk'
p490
aS'human resources administrator'
p491
aS'information clerk'
p492
aS'legal secretary'
p493
aS'mail clerk'
p494
aS'mail clerk leader'
p495
aS'mail equipment operator'
p496
aS'medical secretary'
p497
aS'office assistant'
p498
aS'office clerk'
p499
aS'office manager'
p500
aS'office support manager'
p501
aS'office support supervisor'
p502
aS'receptionist'
p503
aS'records management analyst'
p504
aS'secretary'
p505
aS'senior administrative analyst'
p506
aS'senior administrative coordinator'
p507
aS'senior administrative services officer'
p508
aS'senior coordinator'
p509
aS'senior executive assistant'
p510
aS'senior special events coordinator'
p511
aS'senior support assistant'
p512
aS'senior support specialist'
p513
aS'special events coordinator'
p514
aS'special programs coordinator'
p515
aS'staff assistant'
p516
aS'support assistant'
p517
aS'support specialist'
p518
aS'typist'
p519
aS'virtual assistant'
p520
aS'virtual receptionist'
p521
aS'word processor'
p522
aS'account associate'
p523
aS'account coordinator'
p524
aS'account director'
p525
aS'account manager'
p526
aS'account specialist'
p527
aS'account representative'
p528
aS'account supervisor'
p529
aS'advertising assistant'
p530
aS'advertising buyer'
p531
aS'advertising campaign manager'
p532
aS'advertising coordinator'
p533
aS'advertising copywriter'
p534
aS'advertising manager'
p535
aS'advertising sales director'
p536
aS'advertising sales representative'
p537
aS'advertising specialist'
p538
aS'agency account coordinator'
p539
aS'art director'
p540
aS'assistant account executive'
p541
aS'assistant buyer'
p542
aS'assistant media planner'
p543
aS'broadcast account manager'
p544
aS'client strategist'
p545
aS'client support specialist'
p546
aS'communications coordinator'
p547
aS'engineering manager'
p548
aS'manager'
p549
aS'Head-Technology'
p550
aS'creative director'
p551
aS'digital media planner'
p552
aS'digital advertising specialist'
p553
aS'digital advertising sales manager'
p554
aS'director, advertising'
p555
aS'interactive media buyer'
p556
aS'interactive media planner'
p557
aS'internet advertising buyer'
p558
aS'major account manager'
p559
aS'manager, advertising traffic'
p560
aS'manager, digital advertising'
p561
aS'marketing coordinator'
p562
aS'media coordinator'
p563
aS'media director'
p564
aS'media planner'
p565
aS'media research analyst'
p566
aS'media specialist'
p567
aS'multi media sales manager'
p568
aS'multi media advertising sales manager'
p569
aS'national account coordinator'
p570
aS'online advertising coordinator'
p571
aS'online advertising director'
p572
aS'online advertising manager'
p573
aS'online advertising specialist'
p574
aS'preprint analyst'
p575
aS'print traffic coordinator'
p576
aS'print traffic director'
p577
aS'print traffic manager'
p578
aS'sales planner'
p579
aS'social media manager'
p580
aS'senior account director'
p581
aS'target marketing strategist'
p582
aS'traffic manager'
p583
aS'account executive'
p584
aS'Head-IT'
p585
aS'aircraft avionics technician'
p586
aS'aircraft cleaning supervisor'
p587
aS'aircraft sheet metal mechanic'
p588
aS'aircraft structures mechanic'
p589
aS'airline it product specialist'
p590
aS'assistant manager events'
p591
aS'attorney'
p592
aS'aviation inside sales'
p593
aS'aviation safety staff engineer'
p594
aS'aviation security intelligence inspector'
p595
aS'baggage handler'
p596
aS'base specialty electrician'
p597
aS'business consultant'
p598
aS'business systems analyst'
p599
aS'c - e'
p600
aS'captain'
p601
aS'cargo agent'
p602
aS'catering account manger'
p603
aS'club representative'
p604
aS'co-pilot'
p605
aS'commercial airline refueler'
p606
aS'corporate relations manager'
p607
aS'corporate reservations agent'
p608
aS'corporate travel agent'
p609
aS'crew schedulers'
p610
aS'crew scheduling manager'
p611
aS'crew scheduling supervisor'
p612
aS'crew scheduling trainee'
p613
aS'cruise pilot'
p614
aS'customer service agent'
p615
aS'customer service manager'
p616
aS'director, pilot training'
p617
aS'dispatcher'
p618
aS'event coordinator'
p619
aS'export receiving agent'
p620
aS'\xa0'
aS'f - m'
p621
aS'financial analyst'
p622
aS'first officer'
p623
aS'flight attendant'
p624
aS'flight coordinator'
p625
aS'flight instructor'
p626
aS'food and equipment handler'
p627
aS'gate agent'
p628
aS'ground service agent'
p629
aS'ground service crew'
p630
aS'ground support equipment mechanic'
p631
aS'human resources manager'
p632
aS'in-flight training manager'
p633
aS'infrastructure manager'
p634
aS'instructor'
p635
aS'logistics manager'
p636
aS'manager of aircraft appearance and operations'
p637
aS'marketing communications specialist'
p638
aS'mechanic'
p639
aS'multilingual flight attendant'
p640
aS'o - w'
p641
aS'operations agent'
p642
aS'operations manager'
p643
aS'passenger service agent'
p644
aS'pilot'
p645
aS'principal service engineer'
p646
aS'provisioning agents'
p647
aS'quality assurance agent'
p648
aS'quality assurance coordinator'
p649
aS'quality assurance manager'
p650
aS'ramp agents'
p651
aS'ramp operator'
p652
aS'recruiter'
p653
aS'reservations agent'
p654
aS'sales agent'
p655
aS'sales manager'
p656
aS'senior analyst airport services'
p657
aS'senior avionics engineer'
p658
aS'senior manager yield and revenue management'
p659
aS'specialist - metrics and reporting'
p660
aS'staff assistant - accounting'
p661
aS'station agent'
p662
aS'supervisor - airline passenger service'
p663
aS'supervisor aircraft maintenance'
p664
aS'technology - solution architect'
p665
aS'technology manager, asset and configuration'
p666
aS'technology manager, change/deployment manager'
p667
aS'ticket agent'
p668
aS'trainee flight attendant'
p669
aS'transport pilot'
p670
aS'travel agent'
p671
aS'travel consultant'
p672
aS'utility specialist'
p673
aS'warehouse/equipment agent'
p674
aS'wheelchair agent'
p675
aS'account manager - alternative fuels'
p676
aS'account manager - green energy'
p677
aS'alternative energy sales agent\xa0'
p678
aS'alternative energy technician'
p679
aS'biomass plant manager'
p680
aS'business analyst - wind'
p681
aS'business development associate'
p682
aS'campaign and policy representative'
p683
aS'clean energy outreach coordinator'
p684
aS'communications associate'
p685
aS'communications manager'
p686
aS'compensation analyst'
p687
aS'corporate communications specialist'
p688
aS'development officer'
p689
aS'director of commercial programs'
p690
aS'director of marketing'
p691
aS'down turbine lead fulfillment'
p692
aS'e - l'
p693
aS'electrical engineer - renewables'
p694
aS'energy efficiency and technology project leader'
p695
aS'energy engineer'
p696
aS'energy manager'
p697
aS'energy project manager'
p698
aS'energy solutions engineer'
p699
aS'field service manager'
p700
aS'field service representative'
p701
aS'fuel cell test support technician'
p702
aS'h2 fueling engineer'
p703
aS'human resources generalist'
p704
aS'inside sales representative - solar sales'
p705
aS'inventory coordinator\xa0'
p706
aS'laboratory program manager - geothermal technologies'
p707
aS'lead generator'
p708
aS'logistics operation planner'
p709
aS'm - r'
p710
aS'marketing assistant'
p711
aS'mechanical engineer \x96 wind'
p712
aS'offshore energy analyst'
p713
aS'operations technician'
p714
aS'outside solar sales consultant'
p715
aS'portfolio optimization - biomass advisor'
p716
aS'process engineer - waste to energy'
p717
aS'production assembler'
p718
aS'production supervisor\xa0'
p719
aS'program assistant'
p720
aS'project assistant'
p721
aS'project manager - turbine support'
p722
aS'public relations specialist'
p723
aS'regional accounts manager'
p724
aS'renewable energy advisor'
p725
aS'renewable energy turbine lead fulfillment specialist'
p726
aS'renewable energy policy analyst'
p727
aS'research analyst - wind energy association'
p728
aS'research assistant'
p729
aS'resource energy manager'
p730
aS's - w'
p731
aS'sales assistant'
p732
aS'senior analyst - alternative energy'
p733
aS'senior climate and energy campaigner'
p734
aS'senior consultant - \xa0energy and environmental resources'
p735
aS'service technician'
p736
aS'site manager'
p737
aS'solar alternative energy sales engineer solar panel alternative energy engineer'
p738
aS'strategic purchaser'
p739
aS'towers and foundations - assistant lead engineer'
p740
aS'transaction specialist - alternative energy'
p741
aS'turbine equipment specialist'
p742
aS'wind applications engineer'
p743
aS'wind facility manager'
p744
aS'wind plant technician'
p745
aS'wind technician'
p746
aS'wind turbine electrical engineer'
p747
aS'wind turbine technician'
p748
aS'administrative manager'
p749
aS'assessor'
p750
aS'benefits officer'
p751
aS'branch manager'
p752
aS'business office manager'
p753
aS'business manager'
p754
aS'cash manager'
p755
aS'certified financial planner'
p756
aS'chartered wealth manager'
p757
aS'chief executive officer'
p758
aS'chief financial officer'
p759
aS'claims adjuster'
p760
aS'commercial appraiser'
p761
aS'commercial real estate agent'
p762
aS'commercial real estate broker'
p763
aS'controller'
p764
aS'credit manager'
p765
aS'damage appraiser'
p766
aS'hedge fund manager'
p767
aS'hedge fund principal'
p768
aS'hedge fund trader'
p769
aS'insurance adjuster'
p770
aS'insurance agent'
p771
aS'insurance appraiser'
p772
aS'insurance broker'
p773
aS'insurance claims examiner'
p774
aS'insurance investigator'
p775
aS'investment advisor'
p776
aS'investment banker'
p777
aS'investor relations officer'
p778
aS'leveraged buyout investor'
p779
aS'loan officer'
p780
aS'loss control specialist'
p781
aS'mortgage banker'
p782
aS'mutual fund analyst'
p783
aS'portfolio management marketing'
p784
aS'portfolio manager'
p785
aS'ratings analyst'
p786
aS'real estate officer'
p787
aS'residential appraiser'
p788
aS'residential real estate agent'
p789
aS'residential real estate broker'
p790
aS'risk manager'
p791
aS'service representative'
p792
aS'stockbroker'
p793
aS'treasurer'
p794
aS'trust officer'
p795
aS'underwriter'
p796
aS'agricultural lender'
p797
aS'analyst, bankruptcy support'
p798
aS'anti-money laundering auditor'
p799
aS'assistant branch manager'
p800
aS'assistant trust administrator'
p801
aS'audit manager'
p802
aS'bank examiner'
p803
aS'bankruptcy/foreclosure coordinator'
p804
aS'bilingual client services representative'
p805
aS'business banking loan administration manager'
p806
aS'business banking officer'
p807
aS'business intelligence manager'
p808
aS'client service manager'
p809
aS'collector'
p810
aS'commercial relationship management assistant'
p811
aS'common trust fund accountant'
p812
aS'consumer credit analyst'
p813
aS'consumer finance assistant manager'
p814
aS'consumer loans processor'
p815
aS'consumer loan underwriter'
p816
aS'custody investment specialist'
p817
aS'customer service representative'
p818
aS'default specialist'
p819
aS'escrow manager'
p820
aS'eservices quality analyst'
p821
aS'head teller'
p822
aS'internal auditor'
p823
aS'investment accounting analyst'
p824
aS'investment management operations analyst'
p825
aS'investment management specialist'
p826
aS'investment planner'
p827
aS'junior analyst - asset management'
p828
aS'lead business consultant, banking innovation center'
p829
aS'lead syndication specialist'
p830
aS'lending manager'
p831
aS'loan officer trainee'
p832
aS'loan representative'
p833
aS'loan support specialist'
p834
aS'lock box clerk'
p835
aS'loss recovery manager'
p836
aS'mortgage consultant'
p837
aS'mortgage operations support technician'
p838
aS'new accounts banker'
p839
aS'online customer service representative'
p840
aS'origination loan officer'
p841
aS'personal banker'
p842
aS'phone banker'
p843
aS'premier banker'
p844
aS'regulatory compliance analyst'
p845
aS'relationship manager, commercial lending'
p846
aS'senior financial analyst'
p847
aS'senior investment analyst'
p848
aS'senior teller'
p849
aS'senior trust consultant'
p850
aS'technology risk manager'
p851
aS'teller'
p852
aS'trust asset manager'
p853
aS'trust assistant'
p854
aS'wire department manager'
p855
aS'advanced business intelligence analyst/project manager'
p856
aS'application technical specialist'
p857
aS'associate director social business intelligence and big data'
p858
aS'business intelligence analyst'
p859
aS'business intelligence and foundation services leader'
p860
aS'business intelligence and reporting analyst'
p861
aS'business intelligence business analyst'
p862
aS'business intelligence developer'
p863
aS'business intelligence director'
p864
aS'business intelligence engineer'
p865
aS'business intelligence solutions developer'
p866
aS'business objects architect'
p867
aS'cognos business development architect'
p868
aS'cognos business intelligence developer'
p869
aS'consumer insight manager'
p870
aS'cyber intelligence watch officer'
p871
aS'd - i'
p872
aS'data analyst - business intelligence'
p873
aS'data architect'
p874
aS'data warehouse and business intelligence developer'
p875
aS'director of business intelligence and data warehouse'
p876
aS'enterprise account executive - predictive intelligence'
p877
aS'enterprise intelligence reporting architect'
p878
aS'ethics office business intelligence officer'
p879
aS'federal - business intelligence lead'
p880
aS'healthcare business intelligence manager'
p881
aS'informatica extract transform load (etl) developer'
p882
aS'information delivery, data analyst'
p883
aS'information technology business intelligence platform product manager'
p884
aS'institutional research business intelligence systems analyst'
p885
aS'integration/business intelligence technical lead'
p886
aS'j - r'
p887
aS'java developer - big data/business intelligence'
p888
aS'lead analytics engineer'
p889
aS'lead business intelligence developer'
p890
aS'manager, business intelligence\xa0'
p891
aS'manager, business metrics/analytics'
p892
aS'microstrategy dashboard developer and architect'
p893
aS'oracle technical lead'
p894
aS'peoplesoft business analyst'
p895
aS'apprentice'
p896
aS'assistant project manager'
p897
aS'building inspector'
p898
aS'carpenter'
p899
aS'concrete laborers'
p900
aS'construction assistant'
p901
aS'construction coordinator'
p902
aS'construction engineer'
p903
aS'construction foreman'
p904
aS'construction manager'
p905
aS'construction superintendent'
p906
aS'construction supervisor'
p907
aS'construction worker'
p908
aS'contract manager'
p909
aS'crane operator'
p910
aS'dry wall finisher'
p911
aS'dry wall installer'
p912
aS'e - m'
p913
aS'estimator'
p914
aS'electrician'
p915
aS'equipment operator'
p916
aS'field engineer'
p917
aS'framing carpenter'
p918
aS'general laborer'
p919
aS'iron worker'
p920
aS'joiner'
p921
aS'laborer'
p922
aS'master electrician'
p923
aS'master plumber'
p924
aS'n - z'
p925
aS'painter'
p926
aS'pipe fitter'
p927
aS'planner'
p928
aS'plumber'
p929
aS'purchasing coordinator'
p930
aS'roofer'
p931
aS'safety director'
p932
aS'safety manager'
p933
aS'scheduler'
p934
aS'signal worker'
p935
aS'superintendent'
p936
aS'surveyor'
p937
aS'welder'
p938
aS'cao (chief accounting officer)'
p939
aS'caa (chief applications architect)'
p940
aS'cao (chief administrative officer)'
p941
aS'cco (chief contracting officer)'
p942
aS'cdo (chief development officer)'
p943
aS'ceo (chief executive officer)'
p944
aS'cco (chief compliance officer)'
p945
aS'cfo (chief financial officer)'
p946
aS'ciso (chief information security officer)'
p947
aS'cio (chief information officer)'
p948
aS'cio (chief investments officer)'
p949
aS'cito (chief information technology officer)'
p950
aS'cmo (chief marketing officer)'
p951
aS'cpo (chief product officer)'
p952
aS'cro (chief risk officer)'
p953
aS'cso (chief security officer)'
p954
aS'cto (chief technical officer)'
p955
aS'cuo (chief underwriting officer)'
p956
aS'coo (chief operating officer)'
p957
aS'coo (chief operations officer)'
p958
aS'assistant account manager'
p959
aS'assistant customer care center manager'
p960
aS'bellman'
p961
aS'benefit coordinator'
p962
aS'bilingual customer service representative'
p963
aS'call center lead'
p964
aS'call center representative'
p965
aS'call center supervisor'
p966
aS'cashier'
p967
aS'client account assistant'
p968
aS'client distribution specialist'
p969
aS'client relations associate'
p970
aS'client relations representative'
p971
aS'client services coordinator'
p972
aS'client services representative'
p973
aS'client service specialist'
p974
aS'client success manager'
p975
aS'concierge\xa0'
p976
aS'contact center help desk'
p977
aS'customer care associate'
p978
aS'customer care operator'
p979
aS'customer care representative'
p980
aS'customer care manager'
p981
aS'customer care supervisor'
p982
aS'customer service ambassador'
p983
aS'customer service associate'
p984
aS'customer service engineer'
p985
aS'customer service greeter'
p986
aS'customer service lead'
p987
aS'customer service specialist'
p988
aS'customer service technician'
p989
aS'customer solution manager'
p990
aS'customer support associate'
p991
aS'client support manager'
p992
aS'customer support specialist'
p993
aS'data services specialist'
p994
aS'director of\xa0 customer success and satisfaction'
p995
aS'duty manager'
p996
aS'front desk agent'
p997
aS'front desk associate'
p998
aS'front desk coordinator'
p999
aS'front desk manager'
p1000
aS'front desk receptionist'
p1001
aS'garage cashier'
p1002
aS'guest service agent'
p1003
aS'guest service representative'
p1004
aS'health and welfare services supervisor'
p1005
aS'help desk associate'
p1006
aS'help desk support'
p1007
aS'help desk technician'
p1008
aS'hostess'
p1009
aS'inside salesperson'
p1010
aS'investment assistant'
p1011
aS'manufacturing customer service representative'
p1012
aS'medical receptionist'
p1013
aS'online customer support'
p1014
aS'outbound calling representative'
p1015
aS'patient care coordinator'
p1016
aS'rental representative'
p1017
aS'retail associate'
p1018
aS'retail sales associate'
p1019
aS'sales coordinator'
p1020
aS'server'
p1021
aS'service administrator'
p1022
aS'service advisor'
p1023
aS'service consultant'
p1024
aS'special orders technician'
p1025
aS'supervisor of provider relations'
p1026
aS'telephone support specialist'
p1027
aS'territory service representative'
p1028
aS'transaction coordinator'
p1029
aS'vehicle return associate'
p1030
aS'erospace engineer'
p1031
aS'agricultural engineer'
p1032
aS'application engineer'
p1033
aS'automotive engineer'
p1034
aS'biological engineer'
p1035
aS'biomedical engineer'
p1036
aS'boiler engineer'
p1037
aS'ceramics engineer'
p1038
aS'chief engineer'
p1039
aS'commissioning engineer'
p1040
aS'compliance engineer'
p1041
aS'component engineer'
p1042
aS'computer hardware engineer'
p1043
aS'computer software engineer'
p1044
aS'contract engineer'
p1045
aS'controls engineer'
p1046
aS'cost engineer'
p1047
aS'design engineer'
p1048
aS'director of engineering'
p1049
aS'drafting technician'
p1050
aS'drilling engineer'
p1051
aS'electrical design engineer'
p1052
aS'electrical field engineer'
p1053
aS'electro-mechanical engineer'
p1054
aS'electronics engineer (non-computer)'
p1055
aS'engineering aide'
p1056
aS'engineering clerk'
p1057
aS'engineering executive'
p1058
aS'engineering manager'
p1059
aS'engineering secretary'
p1060
aS'engineering technician'
p1061
aS'entry level engineer'
p1062
aS'environmental compliance engineer'
p1063
aS'environmental health safety engineer'
p1064
aS'equipment engineer'
p1065
aS'e/m engineer'
p1066
aS'facilities engineer'
p1067
aS'actuarial assistant'
p1068
aS'advertising sales assistant'
p1069
aS'allocation analyst'
p1070
aS'assistant\xa0media buyer'
p1071
aS'assistant\xa0media planner'
p1072
aS'buyer trainee'
p1073
aS'computer programmer'
p1074
aS'consulting analyst'
p1075
aS'editorial assistant'
p1076
aS'environmental engineering technician'
p1077
aS'human resources assistant'
p1078
aS'it analyst'
p1079
aS'junior accountant'
p1080
aS'junior chemist'
p1081
aS'junior engineer'
p1082
aS'occupational therapist'
p1083
aS'operations analyst'
p1084
aS'physical therapist'
p1085
aS"physician's assistant"
p1086
aS'recruiting assistant'
p1087
aS'registered nurse'
p1088
aS'research associate'
p1089
aS'research technician'
p1090
aS'retail management trainee'
p1091
aS'sales trainee'
p1092
aS'social media specialist'
p1093
aS'social worker'
p1094
aS'special educator'
p1095
aS'teacher'
p1096
aS'underwriter assistant'
p1097
aS'analytics manager'
p1098
aS'analytics scientist'
p1099
aS'big data scientist'
p1100
aS'big data software engineer'
p1101
aS'business analysis director'
p1102
aS'business analysis manager'
p1103
aS'business analytics director'
p1104
aS'business insights analyst'
p1105
aS'business intelligence consultant'
p1106
aS'chief analytics officer'
p1107
aS'chief data officer'
p1108
aS'consumer journey data scientist\xa0'
p1109
aS'd - g'
p1110
aS'data analyst'
p1111
aS'data analytics consultant\xa0'
p1112
aS'data analytics engineer'
p1113
aS'data miner'
p1114
aS'data mining scientist'
p1115
aS'data modeler'
p1116
aS'data scientist'
p1117
aS'data scientist, analytics'
p1118
aS'data scientist, big data advanced analytics'
p1119
aS'data scientist - user analysis'
p1120
aS'director, data science'
p1121
aS'director of advanced analytics\xa0'
p1122
aS'director of research'
p1123
aS'director of web analytics'
p1124
aS'downstream processing scientist'
p1125
aS'enterprise information architect'
p1126
aS'h - m'
p1127
aS'hadoop/bid data - data scientist'
p1128
aS'identity research and modeling data scientist'
p1129
aS'insights - data engineer'
p1130
aS'junior data scientist'
p1131
aS'lead data scientist, intelligence platform'
p1132
aS'machine learning engineer'
p1133
aS'machine learning specialist'
p1134
aS'manager of analytics'
p1135
aS'mass relevance - data scientist'
p1136
aS'p - s'
p1137
aS'planning manager'
p1138
aS'predictive modeling data scientist'
p1139
aS'principal data scientist'
p1140
aS'process development lead'
p1141
aS'saas data scientist'
p1142
aS'sales excellence data scientist'
p1143
aS'sap solution architect'
p1144
aS'senior data scientist'
p1145
aS'senior research scientist'
p1146
aS'senior scientist, enterprise products'
p1147
aS'staff data scientist'
p1148
aS'vice president, data'
p1149
aS'vice president, data science'
p1150
aS'amusement ride attendant'
p1151
aS'babysitter'
p1152
aS'bagger - supermarket'
p1153
aS'baseball umpire for little league'
p1154
aS'basketball referee for juniors'
p1155
aS'busser'
p1156
aS'camp counselor'
p1157
aS'camp counselor in training'
p1158
aS'car wash attendant'
p1159
aS'cashier - supermarket'
p1160
aS'child care assistant'
p1161
aS'concession worker'
p1162
aS'counselor in training'
p1163
aS'counter worker - food service'
p1164
aS'dishwasher'
p1165
aS'dog walker'
p1166
aS'drugstore cashier'
p1167
aS'farmhand'
p1168
aS'fast food worker'
p1169
aS'food prep worker'
p1170
aS'food service worker at nursing home'
p1171
aS'golf caddy'
p1172
aS'household chores'
p1173
aS'kennel assistant'
p1174
aS'lawn mower/landscaper'
p1175
aS'lifeguard'
p1176
aS"mother's helper"
p1177
aS'music teacher for young children'
p1178
aS'nursery worker'
p1179
aS'paper delivery person'
p1180
aS'pet sitter'
p1181
aS'restaurant hostess/host'
p1182
aS'retail store sales clerk'
p1183
aS'soccer referee for juniors'
p1184
aS'stocker - supermarket'
p1185
aS'ticket taker'
p1186
aS'tutor'
p1187
aS'waiter/waitress'
p1188
aS'field service engineer'
p1189
aS'fire protection engineer'
p1190
aS'firmware engineer'
p1191
aS'frontend engineer'
p1192
aS'geological engineer'
p1193
aS'hardware engineer'
p1194
aS'health and safety engineer'
p1195
aS'high-pressure engineer'
p1196
aS'industrial engineer'
p1197
aS'instrumentation engineer'
p1198
aS'i&c engineer'
p1199
aS'lead engineer'
p1200
aS'licensing engineer'
p1201
aS'logistics engineer'
p1202
aS'm - s'
p1203
aS'maintenance engineer'
p1204
aS'manager of engineering'
p1205
aS'manufacturing engineer'
p1206
aS'marine engineer'
p1207
aS'materials engineer'
p1208
aS'mechanical design engineer'
p1209
aS'mechanical engineer'
p1210
aS'metallurgical engineer'
p1211
aS'mining engineer'
p1212
aS'mining safety engineer'
p1213
aS'nuclear engineer'
p1214
aS'network engineer'
p1215
aS'operations engineer'
p1216
aS'packaging engineer'
p1217
aS'performance engineer'
p1218
aS'pipeline engineer'
p1219
aS'piping engineer'
p1220
aS'piping stress engineer'
p1221
aS'planning engineer'
p1222
aS'plant engineer'
p1223
aS'plastics engineer'
p1224
aS'power engineer'
p1225
aS'process control engineer'
p1226
aS'process design engineer'
p1227
aS'process engineer'
p1228
aS'product design/development engineer'
p1229
aS'production engineer'
p1230
aS'project controls engineer'
p1231
aS'project engineer'
p1232
aS'proposal engineering coordinator'
p1233
aS'protection engineer'
p1234
aS'quality assurance engineer'
p1235
aS'quality control engineer'
p1236
aS'quality engineer'
p1237
aS'relay engineer'
p1238
aS'reliability engineer'
p1239
aS'research and development engineer'
p1240
aS'reservoir engineer'
p1241
aS'rf engineer'
p1242
aS'rotating equipment engineer'
p1243
aS'r&d engineer'
p1244
aS'safety engineer'
p1245
aS'scada engineer'
p1246
aS'security engineer'
p1247
aS'senior electrical engineer'
p1248
aS'senior manufacturing engineer'
p1249
aS'senior mechanical engineer'
p1250
aS'senior process engineer'
p1251
aS'software engineer'
p1252
aS'staff engineer'
p1253
aS'staking engineer'
p1254
aS'stationary engineer'
p1255
aS'structural engineer'
p1256
aS'substation engineer'
p1257
aS'systems engineer'
p1258
aS'telecommunications engineer'
p1259
aS'test engineer'
p1260
aS'transmission engineer'
p1261
aS'transmission planning engineer'
p1262
aS'turbine engineer'
p1263
aS'user interface (ui) engineer'
p1264
aS'validation engineer'
p1265
aS'vice president of engineering'
p1266
aS'welding engineer'
p1267
aS'area brand coordinator'
p1268
aS'assistant merchant'
p1269
aS'assistant sales manager'
p1270
aS'assistant store director'
p1271
aS'assistant stylist'
p1272
aS'associate designer'
p1273
aS'bedding designer'
p1274
aS'boutique assistant'
p1275
aS'brand ambassador'
p1276
aS'brand strategist'
p1277
aS'buyer'
p1278
aS'client services manager'
p1279
aS'curated merchant'
p1280
aS'department manager'
p1281
aS'design assistant'
p1282
aS'design associate'
p1283
aS'designer'
p1284
aS'digital media and advertising coordinator'
p1285
aS'director, design and product development'
p1286
aS'director of sourcing'
p1287
aS'director of stores'
p1288
aS'ecommerce coordinator'
p1289
aS'ecommerce planning manager'
p1290
aS'events manager'
p1291
aS'event planner'
p1292
aS'factory manager'
p1293
aS'fashion buyer'
p1294
aS'graphic artist'
p1295
aS'graphic designer'
p1296
aS'graphic production artist'
p1297
aS'i - m'
p1298
aS'import production coordinator'
p1299
aS'international sourcing agent'
p1300
aS'inventory planner/analyst'
p1301
aS'jewelry product manager'
p1302
aS'layette designer'
p1303
aS'logistics and customer service manager'
p1304
aS'logistics associate'
p1305
aS'luxury fashion recruiter'
p1306
aS'manufacturer sales representative'
p1307
aS'marketing manager'
p1308
aS'merchandise coordinator'
p1309
aS'merchandise planner'
p1310
aS'merchandiser'
p1311
aS'merchandising assistant'
p1312
aS'model'
p1313
aS'n - r'
p1314
aS'online merchandise coordinator'
p1315
aS'pattern maker'
p1316
aS'personal shopper'
p1317
aS'planning assistant'
p1318
aS'product developer'
p1319
aS'product development manager'
p1320
aS'product planner'
p1321
aS'production assistant'
p1322
aS'production coordinator'
p1323
aS'production sourcing director'
p1324
aS'publicist'
p1325
aS'public relations director'
p1326
aS'real estate staff attorney'
p1327
aS'research and development manager'
p1328
aS'retail buyer'
p1329
aS'retail fashion recruiter'
p1330
aS'retail footwear buyer'
p1331
aS'retail salesperson'
p1332
aS'retail store planner'
p1333
aS'sales associate'
p1334
aS'sales development specialist'
p1335
aS'sales inventory analyst'
p1336
aS'sales representative'
p1337
aS'senior brand manager'
p1338
aS'senior merchant'
p1339
aS'senior sales manager'
p1340
aS'showroom assistant'
p1341
aS'showroom manager'
p1342
aS'showroom model'
p1343
aS'store director'
p1344
aS'store manager'
p1345
aS'style specialist'
p1346
aS'stylist'
p1347
aS'technical designer'
p1348
aS'textile fabric colorist'
p1349
aS'warehouse manager'
p1350
aS'accountant'
p1351
aS'administrative medical assistant'
p1352
aS'admissions director'
p1353
aS'anesthesiologist'
p1354
aS'bereavement coordinator'
p1355
aS'billing manager'
p1356
aS'billing specialist'
p1357
aS'biologist'
p1358
aS'biomedical technician'
p1359
aS'case manager'
p1360
aS'certified medical assistant'
p1361
aS'certified nurse assistant'
p1362
aS'certified nursing assistant'
p1363
aS'certified pharmacy technician'
p1364
aS'charge nurse'
p1365
aS'claims examiner'
p1366
aS'clerk'
p1367
aS'clinical research associate'
p1368
aS'clinical research coordinator'
p1369
aS'clinical specialist'
p1370
aS'coder'
p1371
aS'coding educator'
p1372
aS'coordinator'
p1373
aS'counselor'
p1374
aS'customer service rep'
p1375
aS'dental hygienist'
p1376
aS'dentist'
p1377
aS'dietitian'
p1378
aS'director of nursing'
p1379
aS'director of operations'
p1380
aS'director of rehabilitation'
p1381
aS'doctor'
p1382
aS'emergency medical technician'
p1383
aS'executive director'
p1384
aS'front office help'
p1385
aS'application support analyst'
p1386
aS'applications engineer'
p1387
aS'associate developer'
p1388
aS'chief technology officer'
p1389
aS'chief information officer'
p1390
aS'computer and information systems manager'
p1391
aS'computer systems manager'
p1392
aS'customer support administrator'
p1393
aS'data center support specialist'
p1394
aS'data quality manager'
p1395
aS'database administrator'
p1396
aS'desktop support manager'
p1397
aS'desktop support specialist'
p1398
aS'director of technology'
p1399
aS'e - n'
p1400
aS'front end developer'
p1401
aS'help desk specialist'
p1402
aS'information technology coordinator'
p1403
aS'information technology director'
p1404
aS'information technology manager'
p1405
aS'it support manager'
p1406
aS'it support specialist'
p1407
aS'it systems administrator'
p1408
aS'junior software engineer'
p1409
aS'management information systems director'
p1410
aS'.net developer'
p1411
aS'network architect'
p1412
aS'network systems administrator'
p1413
aS'programmer analyst'
p1414
aS'senior applications engineer'
p1415
aS'senior database administrator'
p1416
aS'senior network architect'
p1417
aS'senior network engineer'
p1418
aS'senior network system administrator'
p1419
aS'senior programmer'
p1420
aS'senior programmer analyst'
p1421
aS'senior security specialist'
p1422
aS'senior system administrator'
p1423
aS'senior system analyst'
p1424
aS'senior system architect'
p1425
aS'senior system designer'
p1426
aS'senior systems analyst'
p1427
aS'senior systems software engineer'
p1428
aS'senior web administrator'
p1429
aS'senior web developer'
p1430
aS'software architech'
p1431
aS'software quality assurance analyst'
p1432
aS'systems administrator'
p1433
aS'system architect'
p1434
aS'systems designer'
p1435
aS'systems software engineer'
p1436
aS'technical operations officer'
p1437
aS'technical support specialist'
p1438
aS'technical specialist'
p1439
aS'web administrator'
p1440
aS'web developer'
p1441
aS'webmaster'
p1442
aS'back office assistant'
p1443
aS'back office supervisor'
p1444
aS'backwaiter'
p1445
aS'banquet server'
p1446
aS'banquet manager'
p1447
aS'bartender'
p1448
aS'bar staff'
p1449
aS'bell attendant'
p1450
aS'bellhop'
p1451
aS'bellperson'
p1452
aS'cafe manager'
p1453
aS'catering manager'
p1454
aS'catering sales manager'
p1455
aS'chef'
p1456
aS'concierge'
p1457
aS'concierge agent'
p1458
aS'cook'
p1459
aS'corporate sales manager'
p1460
aS'crew member'
p1461
aS'director of hotel sales'
p1462
aS'director of hotel operations'
p1463
aS'director of maintenance'
p1464
aS'director of sales'
p1465
aS'driver'
p1466
aS'executive housekeeper'
p1467
aS'executive conference manager'
p1468
aS'executive meeting manager'
p1469
aS'food and beverage manager'
p1470
aS'food runner'
p1471
aS'food server'
p1472
aS'front desk clerk'
p1473
aS'front desk sales and service associate'
p1474
aS'front office associate'
p1475
aS'front office attendant'
p1476
aS'front office supervisor'
p1477
aS'guest room sales manager'
p1478
aS'greeter'
p1479
aS'group sales coordinator'
p1480
aS'group sales manager'
p1481
aS'guest services associate'
p1482
aS'guest services coordinator'
p1483
aS'guest services manager'
p1484
aS'host'
p1485
aS'hotel deposit clerk'
p1486
aS'hotel group sales manager'
p1487
aS'housekeeper'
p1488
aS'housekeeper aide'
p1489
aS'housekeeping supervisor'
p1490
aS'kitchen team member'
p1491
aS'lead housekeeper'
p1492
aS'manager, special events'
p1493
aS'meeting coordinator'
p1494
aS'meeting concierge'
p1495
aS'meeting specialist'
p1496
aS'meeting manager'
p1497
aS'mini-bar attendant'
p1498
aS'night auditor'
p1499
aS'night clerk'
p1500
aS'public relations coordinator'
p1501
aS'public relations manager'
p1502
aS'restaurant manager'
p1503
aS'room attendant'
p1504
aS'room service manager'
p1505
aS'room service worker'
p1506
aS'sales and marketing coordinator'
p1507
aS'shift leader'
p1508
aS'shift manager'
p1509
aS'team member'
p1510
aS'transportation coordinator'
p1511
aS'valet attendant'
p1512
aS'valet parker'
p1513
aS'valet parking attendant'
p1514
aS'waiter'
p1515
aS'waitress'
p1516
aS'wait staff'
p1517
aS'wedding coordinator'
p1518
aS'wedding sales manager'
p1519
aS'human resources director'
p1520
aS'human resources recruiter'
p1521
aS'actuarial associate'
p1522
aS'actuarial manager'
p1523
aS'adjuster'
p1524
aS'bookkeeper'
p1525
aS'broker'
p1526
aS'claims analyst'
p1527
aS'claims manager'
p1528
aS'claims representative'
p1529
aS'claims specialist'
p1530
aS'division manager'
p1531
aS'field adjuster'
p1532
aS'field promotion coordinator'
p1533
aS'loss control consultant/specialist'
p1534
aS'manager of customer billing'
p1535
aS'sales agency manager'
p1536
aS'state sales manager'
p1537
aS'training manager'
p1538
aS'underwriting manager'
p1539
aS'armed shift supervisor'
p1540
aS'background investigator'
p1541
aS'blood pattern analyst'
p1542
aS'bonding clerk'
p1543
aS'campus police officer'
p1544
aS'central inspector'
p1545
aS'claims investigator'
p1546
aS'compliance/privacy investigator'
p1547
aS'computer forensics investigator'
p1548
aS'corporate investigator'
p1549
aS'correctional officer'
p1550
aS'crime analyst'
p1551
aS'customs and border protection officer'
p1552
aS'd - f'
p1553
aS'dea special agent'
p1554
aS'deputy sheriff'
p1555
aS'detective'
p1556
aS'detention deputy trainee'
p1557
aS'digital forensic expert'
p1558
aS'diversion investigator'
p1559
aS'dna analyst'
p1560
aS'emergency communications technician'
p1561
aS'evidence technician'
p1562
aS'fbi agent'
p1563
aS'fingerprint specialist'
p1564
aS'forensic accounting associate'
p1565
aS'forensic ballistics expert'
p1566
aS'forensic chemist'
p1567
aS'forensic computer examiners'
p1568
aS'forensic documents examiner'
p1569
aS'forensic science technician'
p1570
aS'forensics corporate investigations manager'
p1571
aS'forensic toxicologist'
p1572
aS'fraud investigations manager'
p1573
aS'g - o'
p1574
aS'game warden'
p1575
aS'hazardous devices technician'
p1576
aS'health fraud investigator'
p1577
aS'internal investigator'
p1578
aS'investigative analyst'
p1579
aS'investigative program specialist'
p1580
aS'law enforcement deputy trainee'
p1581
aS'law enforcement investigator'
p1582
aS'maritime enforcement specialist'
p1583
aS'mortgage fraud investigator'
p1584
aS'nsa police officer'
p1585
aS'occupational safety and health investigator'
p1586
aS'park ranger'
p1587
aS'patrol officer'
p1588
aS'photographer'
p1589
aS'police chief'
p1590
aS'police lieutenant'
p1591
aS'police officer'
p1592
aS'police officer trainee'
p1593
aS'police service aide'
p1594
aS'polygraph examiner'
p1595
aS'principal investigator'
p1596
aS'private investigator - surveillance'
p1597
aS'public safety aide'
p1598
aS'public safety dispatcher'
p1599
aS'secret service agent'
p1600
aS'security guard'
p1601
aS'security investigator'
p1602
aS'sergeant, containment and emergency response team'
p1603
aS'sexual assault response coordinator'
p1604
aS'sheriff'
p1605
aS'special agent'
p1606
aS'special investigations coordinator'
p1607
aS'special police officer'
p1608
aS'state trooper'
p1609
aS'surface transit investigations superintendent'
p1610
aS'\xa0t - w'
p1611
aS'terrorist identities analyst'
p1612
aS'transit police officer'
p1613
aS'transportation security officer'
p1614
aS'u.s. marshall'
p1615
aS'victim/witness investigator'
p1616
aS'witness advocate'
p1617
aS'aircraft mechanic'
p1618
aS'assembler'
p1619
aS'assembly supervisor'
p1620
aS'assistant plant manager'
p1621
aS'boilermaker'
p1622
aS'bookbinders and bindery workers'
p1623
aS'cnc machinist'
p1624
aS'chemical plant operator'
p1625
aS'chief manufacturing executive'
p1626
aS'chief quality control executive'
p1627
aS'civil engineering supervisor'
p1628
aS'cnc operator'
p1629
aS'coating, painting, and spraying machine operator'
p1630
aS'computer control programmer/operator'
p1631
aS'configuration analyst'
p1632
aS'dairy processing equipment operator'
p1633
aS'director of quality management'
p1634
aS'distribution manager'
p1635
aS'electromechanical technician'
p1636
aS'electronic assembler'
p1637
aS'electronic technician'
p1638
aS'equipment technician'
p1639
aS'estimating manager'
p1640
aS'expediter'
p1641
aS'facilities manager'
p1642
aS'fiberglass laminator/fabricator'
p1643
aS'field service technician'
p1644
aS'floor assembler'
p1645
aS'floor assembly supervisor'
p1646
aS'industrial engineering technician'
p1647
aS'm - p'
p1648
aS'machine operator'
p1649
aS'machine shop maintenance supervisor'
p1650
aS'machine shop production supervisor'
p1651
aS'machine tool cutting operator/tender'
p1652
aS'machinists'
p1653
aS'manager or supervisor'
p1654
aS'manufacturing/production technician'
p1655
aS'manufacturing process engineer'
p1656
aS'manufacturing production manager'
p1657
aS'manufacturing technician'
p1658
aS'master scheduler'
p1659
aS'material handler'
p1660
aS'materials management supervisor'
p1661
aS'materials manager'
p1662
aS'materials planner'
p1663
aS'mechanical designer'
p1664
aS'mechanical technician'
p1665
aS'metal workers'
p1666
aS'millwright'
p1667
aS'operations clerk'
p1668
aS'operator'
p1669
aS'plant accountant'
p1670
aS'painting and coating worker'
p1671
aS'photographic processor'
p1672
aS'plant human resources manager'
p1673
aS'plant manager'
p1674
aS'plant operator'
p1675
aS'powerhouse supervisor'
p1676
aS'power plant operator'
p1677
aS'precision assembler'
p1678
aS'printing machine operators'
p1679
aS'process/product design engineer'
p1680
aS'process operator'
p1681
aS'processing equipment operations supervisor'
p1682
aS'product development engineering manager'
p1683
aS'production control clerk'
p1684
aS'production control manager'
p1685
aS'production engineering manager'
p1686
aS'product marketing analyst'
p1687
aS'production foreman'
p1688
aS'production painter'
p1689
aS'production planner/scheduler'
p1690
aS'production supervisor'
p1691
aS'production technician'
p1692
aS'production worker'
p1693
aS'purchasing agent/buyer'
p1694
aS'q - z'
p1695
aS'quality control analyst'
p1696
aS'quality control inspector'
p1697
aS'quality inspector'
p1698
aS'quality manager'
p1699
aS'safety manager/coordinator'
p1700
aS'safety technician'
p1701
aS'senior buyer'
p1702
aS'semiconductor processor'
p1703
aS'shift supervisor'
p1704
aS'shipping and receiving manager'
p1705
aS'silicon wafer fabrication operator'
p1706
aS'surface mount technology machine operator'
p1707
aS'structural metal fabricator'
p1708
aS'supplier quality engineer'
p1709
aS'tool, die, and gauge maker'
p1710
aS'tool crib attendant'
p1711
aS'tool room supervisor'
p1712
aS'tool and die maker'
p1713
aS'wafer processing technician'
p1714
aS'warehouse associate'
p1715
aS'warehouse worker'
p1716
aS'waste treatment plant operator'
p1717
aS'woodworker'
p1718
aS'asia regional representative'
p1719
aS'associate - event production services'
p1720
aS'associate director, regulatory affairs'
p1721
aS'chief of party\xa0'
p1722
aS'child protection specialist'
p1723
aS'communications officer'
p1724
aS'counterintelligence officer'
p1725
aS'country director'
p1726
aS'deputy director for countering violent extremism'
p1727
aS'development assistant'
p1728
aS'development associate'
p1729
aS'direct marketing assistant'
p1730
aS'director of fundraising and communications'
p1731
aS'director of policy'
p1732
aS'e - p'
p1733
aS'economic development specialist'
p1734
aS'economic security delegate'
p1735
aS'emergency health program coordinator'
p1736
aS'emergency response coordinator'
p1737
aS'family planning adviser'
p1738
aS'fellow, energy'
p1739
aS'finance director'
p1740
aS'food security analyst'
p1741
aS'foreign service officer'
p1742
aS'gender and participatory methods specialist'
p1743
aS'general counsel'
p1744
aS'global relations officer'
p1745
aS'grants and compliance manager'
p1746
aS'head of mission'
p1747
aS'human dimension officer'
p1748
aS'humanitarian program manager'
p1749
aS'international affairs cyber analyst'
p1750
aS'interpreter'
p1751
aS'lead proposal writer'
p1752
aS'legal system monitor'
p1753
aS'membership engagement coordinator'
p1754
aS'microfinance program coordinator'
p1755
aS'partnership analyst'
p1756
aS'political affairs officer'
p1757
aS'protection coordinator'
p1758
aS'public affairs officer'
p1759
aS'publications editor'
p1760
aS'r - z'
p1761
aS'red cross country representative'
p1762
aS'research associate, africa'
p1763
aS'research associate, latin america'
p1764
aS'research associate, middle east'
p1765
aS'researcher, conflict mapping'
p1766
aS'response team leader'
p1767
aS'senior crisis adviser'
p1768
aS'social media coordinator'
p1769
aS'sustainable agriculture and gender adviser'
p1770
aS'technical adviser, family planning and reproductive health'
p1771
aS'translator'
p1772
aS'urban displacement policy adviser'
p1773
aS"woman's protection and empowerment manager"
p1774
aS'arbitrator'
p1775
aS'conciliator'
p1776
aS'conflict resolution specialist'
p1777
aS'contract analyst'
p1778
aS'contract drafting legal specialist'
p1779
aS'copy center professional'
p1780
aS'corrections officer'
p1781
aS'court advocate'
p1782
aS'court messenger'
p1783
aS'court reporter'
p1784
aS'court representative'
p1785
aS'court transcriptionist'
p1786
aS'document coder'
p1787
aS'e-discovery specialist'
p1788
aS'file clerk'
p1789
aS'judge'
p1790
aS'jury consultant'
p1791
aS'law firm administrator'
p1792
aS'lawyer'
p1793
aS'legal aide/assistant'
p1794
aS'legal analyst'
p1795
aS'legal nurse consultant'
p1796
aS'legal records manager'
p1797
aS'legal services director'
p1798
aS'litigation docket manager'
p1799
aS'litigation support director'
p1800
aS'magistrate'
p1801
aS'mailroom personnel'
p1802
aS'mediator'
p1803
aS'paralegal'
p1804
aS'regulatory affairs director'
p1805
aS'right of way agent'
p1806
aS'software consultant'
p1807
aS'trial consultant'
p1808
aS'chapter relations administrator'
p1809
aS'communications director'
p1810
aS'communications editor'
p1811
aS'communications representative'
p1812
aS'copy writer'
p1813
aS'development director'
p1814
aS'director of development'
p1815
aS'director of public relations'
p1816
aS'editor'
p1817
aS'external communications manager'
p1818
aS'financial public relations associate'
p1819
aS'fundraising manager'
p1820
aS'lobbyist'
p1821
aS'major gifts officer'
p1822
aS'managing editor'
p1823
aS'marketing associate'
p1824
aS'marketing communications director'
p1825
aS'marketing communications manager'
p1826
aS'marketing director'
p1827
aS'media relations manager'
p1828
aS'media and communications manager'
p1829
aS'program coordinator'
p1830
aS'public information assistant'
p1831
aS'public information officer'
p1832
aS'public information specialist'
p1833
aS'technical writer'
p1834
aS'accounting manager\xa0'
p1835
aS'account management, manager'
p1836
aS'advertising manager\xa0'
p1837
aS'affiliate management associate'
p1838
aS'associate manager'
p1839
aS'assistant manager - category management'
p1840
aS'automotive manager'
p1841
aS'budget manager'
p1842
aS'business development manager'
p1843
aS'care manager'
p1844
aS'centralized dispatch manager'
p1845
aS'client service and underwriting manager'
p1846
aS'clinical management - rn unit manager'
p1847
aS'compensation manager'
p1848
aS'compliance manager'
p1849
aS'disposal operations management trainee'
p1850
aS'district fleet manager'
p1851
aS'district sales manager'
p1852
aS'division manager - resource management'
p1853
aS'employee benefits manager'
p1854
aS'employee relations manager'
p1855
aS'financial manager'
p1856
aS'grants management specialist'
p1857
aS'human resource manager'
p1858
aS'inside sales manager\xa0'
p1859
aS'leasing manager'
p1860
aS'manager, asset management'
p1861
aS'manager, decision management'
p1862
aS'manager, margin management'
p1863
aS'manager, process management'
p1864
aS'manager, risk management'
p1865
aS'manager, utilization management'
p1866
aS'manager - oilfield services'
p1867
aS'manager - organizational change management'
p1868
aS'manager marketing - change management and communication'
p1869
aS'manager strategic accounts'
p1870
aS'merchandise manager'
p1871
aS'operations management trainee'
p1872
aS'plant manager, power plant'
p1873
aS'practice manager - healthcare'
p1874
aS'production manager'
p1875
aS'program management, manager'
p1876
aS'property management/assistant general manager'
p1877
aS'purchasing manager'
p1878
aS'restaurant culinary managers'
p1879
aS'route manager'
p1880
aS'sales and catering manager'
p1881
aS'senior manager, product management'
p1882
aS'senior manager, space management'
p1883
aS'senior quality manager'
p1884
aS'senior manager, realty management'
p1885
aS'strategic sourcing manager'
p1886
aS'student loan collection manager'
p1887
aS'territory manager'
p1888
aS'training and development manager'
p1889
aS'transportation manager'
p1890
aS'warehouse and inventory control manager'
p1891
aS'advertising director'
p1892
aS'assistant brand manager'
p1893
aS'assistant marketing director'
p1894
aS'assistant product manager'
p1895
aS'associate brand manager'
p1896
aS'associate marketing director'
p1897
aS'associate product manager'
p1898
aS'brand assistant'
p1899
aS'business development representative'
p1900
aS'communications assistant'
p1901
aS'creative assistant'
p1902
aS'digital brand manager'
p1903
aS'digital marketing manager'
p1904
aS'director of digital marketing'
p1905
aS'ecommerce marketing director'
p1906
aS'ecommerce marketing manager'
p1907
aS'ecommerce marketing specialist'
p1908
aS'email marketer'
p1909
aS'inside sales representative'
p1910
aS'internet marketing coordinator'
p1911
aS'internet marketing director'
p1912
aS'internet marketing specialist'
p1913
aS'market research analyst'
p1914
aS'market research assistant'
p1915
aS'marketing and promotions manager'
p1916
aS'marketing communications coordinator'
p1917
aS'marketing consultant'
p1918
aS'marketing data analyst'
p1919
aS'marketing promotions specialist'
p1920
aS'media assistant'
p1921
aS'media buyer'
p1922
aS'media relations coordinator'
p1923
aS'media relations director'
p1924
aS'media researcher'
p1925
aS'online product manager'
p1926
aS'outside sales representative'
p1927
aS'product marketing manager'
p1928
aS'promotions assistant'
p1929
aS'promotions coordinator'
p1930
aS'promotions director'
p1931
aS'public relations assistant'
p1932
aS'public relations representative'
p1933
aS'publicity assistant'
p1934
aS'publicity director'
p1935
aS'publicity manager'
p1936
aS'regional account manager'
p1937
aS'regional sales manager'
p1938
aS'sales consultant'
p1939
aS'sales director'
p1940
aS'senior product manager'
p1941
aS'senior sales representative'
p1942
aS'seo manager'
p1943
aS'social media marketing manager'
p1944
aS'vice president for marketing'
p1945
aS'animator'
p1946
aS'announcer'
p1947
aS'assistant editor'
p1948
aS'associate producer'
p1949
aS'audio and video equipment technician'
p1950
aS'author'
p1951
aS'broadcast news analyst'
p1952
aS'broadcast and sound engineering technician'
p1953
aS'broadcaster'
p1954
aS'camera operator'
p1955
aS'communication specialist'
p1956
aS'content engineer'
p1957
aS'content manager'
p1958
aS'creative project manager'
p1959
aS'database coordinator'
p1960
aS'digital media specialist'
p1961
aS'electronic data interchange specialist'
p1962
aS'electronic marketing manager'
p1963
aS'executive producer'
p1964
aS'film/video editor'
p1965
aS'freelance writer'
p1966
aS'graphical user interface (gui) programmer'
p1967
aS'graphic/web designer'
p1968
aS'interface designer'
p1969
aS'intranet applications manager'
p1970
aS'intranet applications specialist'
p1971
aS'journalist'
p1972
aS'line producer'
p1973
aS'media product development manager'
p1974
aS'media and communication equipment operator'
p1975
aS'merchandising manager'
p1976
aS'motion picture set worker'
p1977
aS'multimedia designer'
p1978
aS'multimedia services manager'
p1979
aS'multimedia specialist'
p1980
aS'news analysts'
p1981
aS'photo editor'
p1982
aS'producer'
p1983
aS'production artist'
p1984
aS'project coordinator'
p1985
aS'promotions specialist'
p1986
aS'proofreader'
p1987
aS'radio operator'
p1988
aS'recording engineer'
p1989
aS'reporter'
p1990
aS'section editor'
p1991
aS'sound mixer'
p1992
aS'stage hand'
p1993
aS'technical producer'
p1994
aS'telecommunications technician'
p1995
aS'television announcer'
p1996
aS'videographer'
p1997
aS'web content executive'
p1998
aS'web customer support specialist'
p1999
aS'web designer'
p2000
aS'web product manager'
p2001
aS'web systems director'
p2002
aS'appraisal manager'
p2003
aS'assistant broker'
p2004
aS'associate broker'
p2005
aS'closing agent'
p2006
aS'closing coordinator'
p2007
aS'direct of real estate'
p2008
aS'foreclosure specialist'
p2009
aS'home inspector'
p2010
aS'licensed real estate appraiser'
p2011
aS'licensed sales consultant'
p2012
aS'loan documents coordinator'
p2013
aS'loan documents closer'
p2014
aS'loan processor'
p2015
aS'loan underwriter'
p2016
aS'mortgage advisor'
p2017
aS'mortgage coordinator'
p2018
aS'mortgage loan processor'
p2019
aS'mortgage loan underwriter'
p2020
aS'mortgage professional'
p2021
aS'mortgage specialist'
p2022
aS'real estate agent'
p2023
aS'real estate analyst'
p2024
aS'real estate attorney'
p2025
aS'real estate associate'
p2026
aS'real estate clerk'
p2027
aS'real estate consultant'
p2028
aS'real estate manager'
p2029
aS'real estate specialist'
p2030
aS'retail loan specialist'
p2031
aS'title coordinator'
p2032
aS'title examiner'
p2033
aS'apprentice bartender'
p2034
aS'area director'
p2035
aS'assistant chef'
p2036
aS'assistant general manager'
p2037
aS'assistant kitchen manager'
p2038
aS'associate creative director'
p2039
aS'baker'
p2040
aS'bakery-cafe associate'
p2041
aS'barback'
p2042
aS'barista'
p2043
aS'bar manager'
p2044
aS'bus person'
p2045
aS'casual restaurant manager'
p2046
aS'chef manager'
p2047
aS'coffee tasting room assistant'
p2048
aS'culinary services supervisor'
p2049
aS'culinary trainee'
p2050
aS'dessert finisher'
p2051
aS'dining room manager'
p2052
aS'director of human resources'
p2053
aS'district manager'
p2054
aS'executive chef'
p2055
aS'expeditor'
p2056
aS'expresso beverage maker'
p2057
aS'field recruiting manager'
p2058
aS'fine dining restaurant manager'
p2059
aS'front manager'
p2060
aS'grill cook'
p2061
aS'hibachi chef'
p2062
aS'inventory analyst'
p2063
aS'kitchen manager'
p2064
aS'kitchen worker'
p2065
aS'lead cook'
p2066
aS'line cook'
p2067
aS'manager, research and development'
p2068
aS'national training manager'
p2069
aS'pantry worker'
p2070
aS'prep cook'
p2071
aS'regional brand development manager'
p2072
aS'regional facilities manager'
p2073
aS'regional manager'
p2074
aS'regional operations specialist'
p2075
aS'restaurant general manager'
p2076
aS'sous chef'
p2077
aS'steward'
p2078
aS'automotive sales representative'
p2079
aS'b2b corporate sales\xa0'
p2080
aS'channel partner sales executive'
p2081
aS'corporate sales account executive'
p2082
aS'director of inside sales'
p2083
aS'director of national sales'
p2084
aS'direct salesperson'
p2085
aS'direct sales manager'
p2086
aS'distribution sales representative'
p2087
aS'enterprise resources planning representative'
p2088
aS'enterprise sales representative'
p2089
aS'equipment sales specialist'
p2090
aS'executive vice president, sales'
p2091
aS'financial advisor'
p2092
aS'financial planner'
p2093
aS'financial sales assistant'
p2094
aS'fixed income specialist'
p2095
aS'franchise development manager'
p2096
aS'group and events sales coordinator'
p2097
aS'healthcare sales representative'
p2098
aS'industrial sales representative'
p2099
aS'industry representative'
p2100
aS'inside sales manager'
p2101
aS'insurance sales representative'
p2102
aS'investments representative'
p2103
aS'major accounts manager'
p2104
aS'manager, business development'
p2105
aS'market development manager'
p2106
aS'medical equipment leasing and finance'
p2107
aS'medical sales representative'
p2108
aS'national accounts sales analyst'
p2109
aS'national accounts sales representative'
p2110
aS'national accounts sales general manager'
p2111
aS'national sales manager'
p2112
aS'regional dealer recruiter'
p2113
aS'regional sales account manager'
p2114
aS'regional sales executive'
p2115
aS'retail sales representative'
p2116
aS'retail store manager'
p2117
aS'route sales representative'
p2118
aS'sales account executive, small and medium business'
p2119
aS'sales and community marketing manager'
p2120
aS'sales operation coordinator'
p2121
aS'salesperson'
p2122
aS'sales representative - territory lead'
p2123
aS'specialty sales representative'
p2124
aS'strategic account manager'
p2125
aS'territory business manager'
p2126
aS'territory sales manager'
p2127
aS'territory sales representative'
p2128
aS'vice president of sales'
p2129
aS'wealth management advisor'
p2130
aS'wholesale sales manager'
p2131
aS'analytical lab technician'
p2132
aS'analytical services chemist'
p2133
aS'assistant field technician'
p2134
aS'assistant technician'
p2135
aS'business system analyst'
p2136
aS'chemical technician'
p2137
aS'climate data analyst'
p2138
aS'clinical data research'
p2139
aS'clinical pharmacy assistant'
p2140
aS'clinical research director'
p2141
aS'compliance technician'
p2142
aS'computing consultant'
p2143
aS'conservation technician'
p2144
aS'development technologist'
p2145
aS'drug evaluator'
p2146
aS'environmental data analyst'
p2147
aS'environmental emergencies assistant'
p2148
aS'environmental emergencies planner'
p2149
aS'environmental project analyst'
p2150
aS'environmental research assistant'
p2151
aS'environmental services representative'
p2152
aS'exploration director'
p2153
aS'field technician'
p2154
aS'genetic counselor'
p2155
aS'grants/proposal writer'
p2156
aS'groundwater technician'
p2157
aS'hardware designer'
p2158
aS'health research assistant'
p2159
aS'health technology assistant'
p2160
aS'hospital accounting analyst'
p2161
aS'hospital research assistant'
p2162
aS'it support staff'
p2163
aS'institutional research director'
p2164
aS'insurance representative'
p2165
aS'intranet specialist'
p2166
aS'intranet support'
p2167
aS'junior analyst'
p2168
aS'laboratory assistant'
p2169
aS'laboratory instructor'
p2170
aS'laboratory technician'
p2171
aS'market access analyst'
p2172
aS'market access associate'
p2173
aS'medical physics researcher'
p2174
aS'medical research assistant'
p2175
aS'medical research technician'
p2176
aS'medical scientist'
p2177
aS'medical services assistant'
p2178
aS'operations research analysis manager'
p2179
aS'operations section manager'
p2180
aS'operations team leader'
p2181
aS'operations unit manager'
p2182
aS'organic lab research assistant'
p2183
aS'organic lab worker'
p2184
aS'pharmaceutical assistant'
p2185
aS'pharmaceutical marketing assistant'
p2186
aS'pharmaceutical research analyst'
p2187
aS'pharmaceutical research assistant'
p2188
aS'pharmaceutical research technician'
p2189
aS'pharmaceutical technician'
p2190
aS'pharmacy affairs assistant'
p2191
aS'pharmacy assistant'
p2192
aS'pharmacy innovation assistant'
p2193
aS'power regulator'
p2194
aS'process inspector'
p2195
aS'process research manager'
p2196
aS'product test specialist'
p2197
aS'production team leader'
p2198
aS'production test supervisor'
p2199
aS'professional programs assistant'
p2200
aS'quality assistant'
p2201
aS'quality assurance technologist'
p2202
aS'quality control manager'
p2203
aS'quality control supervisor'
p2204
aS'regulatory affairs associate'
p2205
aS'rehabilitation engineering assistant'
p2206
aS'reimbursement analyst'
p2207
aS'research and development associate'
p2208
aS'research and development director'
p2209
aS'research and development supervisor'
p2210
aS'research and development technician'
p2211
aS'research and development tester'
p2212
aS'researcher'
p2213
aS'retail analyst'
p2214
aS'sales analyst'
p2215
aS'satellite data analyst'
p2216
aS'science technician'
p2217
aS'scientific artist'
p2218
aS'senior pharmacy student'
p2219
aS'software developer'
p2220
aS'software engineering assistant'
p2221
aS'solid waste field technician'
p2222
aS'special projects coordinator'
p2223
aS'technical support technician'
p2224
aS'technology research analyst'
p2225
aS'technology research manager'
p2226
aS'technology specialist'
p2227
aS'therapeutic director'
p2228
aS'total quality management director'
p2229
aS'total quality manager'
p2230
aS'transportation project manager'
p2231
aS'blogger'
p2232
aS'community manager'
p2233
aS'content strategist'
p2234
aS'digital communications professional'
p2235
aS'digital content manager'
p2236
aS'digital media manager'
p2237
aS'digital media producer'
p2238
aS'digital media supervisor'
p2239
aS'director of community'
p2240
aS'director, communications planning'
p2241
aS'director, online communications'
p2242
aS'director, social marketing and brand communications'
p2243
aS'director, social media marketing'
p2244
aS'director of social media'
p2245
aS'director of social media communications'
p2246
aS'director, social media relations'
p2247
aS'director of social media strategy'
p2248
aS'engagement coordinator'
p2249
aS'engagement manager'
p2250
aS'interactive media associate'
p2251
aS'interactive media coordinator'
p2252
aS'interactive media manager'
p2253
aS'internet marketing manager'
p2254
aS'manager digital and social media'
p2255
aS'manager, social media'
p2256
aS'multi-media communications specialist'
p2257
aS'online content coordinator'
p2258
aS'social media account executive'
p2259
aS'social media analyst'
p2260
aS'social media assistant'
p2261
aS'social media associate'
p2262
aS'social media designer'
p2263
aS'social media editor'
p2264
aS'social media executive'
p2265
aS'social media marketing coordinator'
p2266
aS'social media manager'
p2267
aS'social media producer'
p2268
aS'social media strategist'
p2269
aS'adolescent specialist'
p2270
aS'adoption specialist'
p2271
aS'case management aide'
p2272
aS'child advocate'
p2273
aS"children's service worker"
p2274
aS'child support officer'
p2275
aS'client advocate'
p2276
aS'community coordinator'
p2277
aS'community outreach worker'
p2278
aS'community support specialist'
p2279
aS'community support worker'
p2280
aS'correctional probation officer'
p2281
aS'correctional treatment specialist'
p2282
aS'corrections unit supervisor'
p2283
aS'crisis therapist'
p2284
aS'delinquency prevention officer'
p2285
aS'director of events'
p2286
aS'director of external affairs'
p2287
aS'director of government relations'
p2288
aS'director of professional services'
p2289
aS'employee assistance counselor'
p2290
aS'family advocacy representative'
p2291
aS'family preservation services coordinator'
p2292
aS'family therapist'
p2293
aS'forensic case monitor'
p2294
aS'foster care therapist'
p2295
aS'gerontology aide.'
p2296
aS'guidance counselor'
p2297
aS'hiv mental health coordinator'
p2298
aS'human service worker'
p2299
aS'information and referral specialist'
p2300
aS'job coach'
p2301
aS'life skills counselor'
p2302
aS'membership coordinator'
p2303
aS'mental health aide'
p2304
aS'mental health counselor'
p2305
aS'nursing home administrator'
p2306
aS'outpatient health specialist'
p2307
aS'parole officer'
p2308
aS'policy planning specialist'
p2309
aS'probation officer'
p2310
aS'program coordinator/manager'
p2311
aS'psychiatric social worker'
p2312
aS'psychological aide'
p2313
aS'public health manager'
p2314
aS'senior negotiator'
p2315
aS'social and human service assistant'
p2316
aS'social services aide'
p2317
aS'social work assistant'
p2318
aS'youth worker'
p2319
aS'alarm technician'
p2320
aS'audio visual technician'
p2321
aS'auto body technician'
p2322
aS'automotive technician'
p2323
aS'bricklayer'
p2324
aS'concrete finisher'
p2325
aS'concrete pump operator'
p2326
aS'countertop fabricator and installer'
p2327
aS'crane technician'
p2328
aS'dozer operator'
p2329
aS'drywaller'
p2330
aS'e\xa0 - i'
p2331
aS'electric power field technician'
p2332
aS'fabricator'
p2333
aS'fiberglass/carbon technician'
p2334
aS'forklift mechanic'
p2335
aS'form builder and finisher'
p2336
aS'front end load driver'
p2337
aS'glazier'
p2338
aS'hardware installation technician'
p2339
aS'heavy equipment technician'
p2340
aS'hvac mechanic'
p2341
aS'installer'
p2342
aS'insulator'
p2343
aS'l - p'
p2344
aS'lineman'
p2345
aS'maintenance technician'
p2346
aS'manual machinist'
p2347
aS'marine tradesman'
p2348
aS'metal building erector'
p2349
aS'metal fabricator'
p2350
aS'metal stud framer'
p2351
aS'oil and gas well driller'
p2352
aS'patio room installer'
p2353
aS'pipefitter'
p2354
aS'press operator'
p2355
aS'punch press operator'
p2356
aS'r - w'
p2357
aS'rebar detailer'
p2358
aS'refrigeration technician'
p2359
aS'sheet metal technician'
p2360
aS'shipfitter'
p2361
aS'solar installers'
p2362
aS'solar technician'
p2363
aS'steel erectors'
p2364
aS'sunroom lead installer'
p2365
aS'tile setter'
p2366
aS'tool and die grinder'
p2367
aS'water services technician'
p2368
aS'academic adviser - athletics'
p2369
aS'aquatics director'
p2370
aS'assistant athletic director'
p2371
aS'assistant coach'
p2372
aS'assistant strength and conditioning coach'
p2373
aS'associate athletic director'
p2374
aS'associate strength and conditioning coach'
p2375
aS'athletic director'
p2376
aS'athletic trainer'
p2377
aS'broadcaster\xa0'
p2378
aS'coach (soccer, tennis, baseball etc.)'
p2379
aS'color analyst'
p2380
aS'community relations director'
p2381
aS'corporate sales director'
p2382
aS'corporate salesperson'
p2383
aS'defensive coordinator'
p2384
aS'director of fitness and wellness\xa0'
p2385
aS'equipment manager'
p2386
aS'fitness instructor\xa0'
p2387
aS'front desk attendant'
p2388
aS'golf pro'
p2389
aS'groundskeeper'
p2390
aS'group sales account executive'
p2391
aS'intramural director'
p2392
aS'maintenance worker'
p2393
aS'memberships salesperson'
p2394
aS'offensive coordinator'
p2395
aS'official'
p2396
aS'performance coach'
p2397
aS'personal trainer'
p2398
aS'physical therapist for sports medicine practice'
p2399
aS'referee'
p2400
aS'scout'
p2401
aS'skating instructor'
p2402
aS'ski instructor'
p2403
aS'sports camp activities director'
p2404
aS'sporting goods sales'
p2405
aS'sports agent'
p2406
aS'sports camp activities specialist (basketball, lacrosse, volleyball etc.)'
p2407
aS'sports camp counselor'
p2408
aS'sports camp director'
p2409
aS'sports information director'
p2410
aS'sports information officer'
p2411
aS'sports lawyer'
p2412
aS'sports physician'
p2413
aS'sporting goods store manager'
p2414
aS'strength and conditioning coach'
p2415
aS'team manager'
p2416
aS'tennis pro\xa0'
p2417
aS'travel secretary'
p2418
aS'umpire'
p2419
aS'yoga teacher'
p2420
aS'administrator, data'
p2421
aS'administrator, database'
p2422
aS'analyst, database'
p2423
aS'analyst, edp (electronic data processing)'
p2424
aS'analyst, electronic data processing (edp) systems'
p2425
aS'architect, database'
p2426
aS'data administrator'
p2427
aS'data analyst - informatics and systems'
p2428
aS'database administrator (dba)'
p2429
aS'database analyst'
p2430
aS'database analyst (dba)'
p2431
aS'database architect'
p2432
aS'database architect (dba)'
p2433
aS'database designer'
p2434
aS'database management supervisor - computer systems'
p2435
aS'database manager'
p2436
aS'data custodian'
p2437
aS'data dictionary administrator'
p2438
aS'data mining analyst'
p2439
aS'data processing specialist'
p2440
aS'data warehouse analyst'
p2441
aS'dba (database administrator)'
p2442
aS'dba (database analyst)'
p2443
aS'dba (database architect)'
p2444
aS'designer, database'
p2445
aS'edp (electronic data processing) analyst'
p2446
aS'edp (electronic data processing) specialist'
p2447
aS'edp (electronic data processing) systems analyst'
p2448
aS'electronic data processing (edp) specialist'
p2449
aS'electronic data processing (edp) systems analyst'
p2450
aS'information resource analyst'
p2451
aS'manager, database'
p2452
aS'specialist, electronic data processing (edp)'
p2453
aS'supervisor, database management - computer systems'
p2454
aS'systems analyst, edp (electronic data processing)'
p2455
aS'damage adjuster'
p2456
aS'dancer'
p2457
aS'data developer'
p2458
aS'data report analyst'
p2459
aS'database developer'
p2460
aS'database engineer'
p2461
aS'database specialist'
p2462
aS'database sql developer'
p2463
aS'data-entry associate'
p2464
aS'data-entry clerk'
p2465
aS'data-entry operator'
p2466
aS'data-entry representative'
p2467
aS'data-entry specialist'
p2468
aS'data-entry technician'
p2469
aS'daycare director'
p2470
aS'dba'
p2471
aS'defense attorney'
p2472
aS'delivery cdl driver'
p2473
aS'delivery contractor'
p2474
aS'delivery courier'
p2475
aS'delivery director'
p2476
aS'delivery driver'
p2477
aS'delivery manager'
p2478
aS'delivery merchandiser'
p2479
aS'delivery personal driver'
p2480
aS'delivery representative'
p2481
aS'delivery specialist'
p2482
aS'delivery supervisor'
p2483
aS'delivery technician'
p2484
aS'demonstrator'
p2485
aS'dental assistant'
p2486
aS'dental associate'
p2487
aS'dental coordinator'
p2488
aS'dental manager'
p2489
aS'dental professional'
p2490
aS'dental receptionist'
p2491
aS'dental technician'
p2492
aS'deputy director'
p2493
aS'dermatologist'
p2494
aS'design instructor'
p2495
aS'desk agent'
p2496
aS'desk clerk'
p2497
aS'desk manager'
p2498
aS'desk receptionist'
p2499
aS'desk representative'
p2500
aS'desktop support analyst'
p2501
aS'desktop support engineer'
p2502
aS'desktop support technician'
p2503
aS'detention officer'
p2504
aS'development chemist'
p2505
aS'diagnostic medical sonographer'
p2506
aS'dialysis nurse'
p2507
aS'dialysis technician'
p2508
aS'die maker'
p2509
aS'diesel mechanic'
p2510
aS'diesel technician'
p2511
aS'dietary aide'
p2512
aS'dietary assistant'
p2513
aS'dietary cook'
p2514
aS'dietary manager'
p2515
aS'dietary supervisor'
p2516
aS'dietetic technician'
p2517
aS'dietician'
p2518
aS'digital design engineer'
p2519
aS'director registered nurse'
p2520
aS'disc jockey'
p2521
aS'dispatch manager'
p2522
aS'dispatch supervisor'
p2523
aS'distribution supervisor'
p2524
aS'district attorney'
p2525
aS'dj'
p2526
aS'dock manager'
p2527
aS'dock supervisor'
p2528
aS'dock worker'
p2529
aS'document clerk'
p2530
aS'dog groomer'
p2531
aS'dog handler'
p2532
aS'dog trainer'
p2533
aS'door service technician'
p2534
aS'doorman'
p2535
aS'dosimetrist'
p2536
aS'drafter'
p2537
aS'draftsman'
p2538
aS'drill engineer'
p2539
aS'drywall finisher'
p2540
aS'dsp engineer'
p2541
aS'abap developer'
p2542
aS'academic advisor'
p2543
aS'academic counselor'
p2544
aS'academic dean'
p2545
aS'account business executive'
p2546
aS'account collector'
p2547
aS'account inside sales executive'
p2548
aS'account inside sales manager'
p2549
aS'account marketing executive'
p2550
aS'account outside sales executive'
p2551
aS'account outside sales manager'
p2552
aS'account sales executive'
p2553
aS'account sales manager'
p2554
aS'accounting accounts payable clerk'
p2555
aS'accounting administrator'
p2556
aS'accounting analyst'
p2557
aS'accounting assistant'
p2558
aS'accounting associate'
p2559
aS'accounting bookkeeper'
p2560
aS'accounting clerk'
p2561
aS'accounting consultant'
p2562
aS'accounting controller'
p2563
aS'accounting coordinator'
p2564
aS'accounting director'
p2565
aS'accounting instructor'
p2566
aS'accounting manager'
p2567
aS'accounting professional'
p2568
aS'accounting representative'
p2569
aS'accounting specialist'
p2570
aS'accounting supervisor'
p2571
aS'accounting technician'
p2572
aS'accounts payable accountant'
p2573
aS'accounts payable accounts receivable clerk'
p2574
aS'accounts payable administrator'
p2575
aS'accounts payable analyst'
p2576
aS'accounts payable assistant'
p2577
aS'accounts payable associate'
p2578
aS'accounts payable clerk'
p2579
aS'accounts payable coordinator'
p2580
aS'accounts payable manager'
p2581
aS'accounts payable representative'
p2582
aS'accounts payable specialist'
p2583
aS'accounts payable supervisor'
p2584
aS'accounts receivable accountant'
p2585
aS'accounts receivable accounts payable clerk'
p2586
aS'accounts receivable analyst'
p2587
aS'accounts receivable assistant'
p2588
aS'accounts receivable associate'
p2589
aS'accounts receivable clerk'
p2590
aS'accounts receivable collection clerk'
p2591
aS'accounts receivable collection specialist'
p2592
aS'accounts receivable collector'
p2593
aS'accounts receivable coordinator'
p2594
aS'accounts receivable manager'
p2595
aS'accounts receivable representative'
p2596
aS'accounts receivable specialist'
p2597
aS'accounts receivable supervisor'
p2598
aS'actionscript developer'
p2599
aS'adjudicate specialist'
p2600
aS'administrative assistant clerk'
p2601
aS'administrative assistant coordinator'
p2602
aS'administrative assistant manager'
p2603
aS'administrative associate'
p2604
aS'administrative clerk'
p2605
aS'administrative executive'
p2606
aS'administrative executive assistant'
p2607
aS'administrative office assistant'
p2608
aS'administrative office manager'
p2609
aS'administrative officer'
p2610
aS'administrative professional'
p2611
aS'administrative receptionist'
p2612
aS'administrative secretary'
p2613
aS'administrative supervisor'
p2614
aS'admissions advisor'
p2615
aS'admissions manager'
p2616
aS'admissions representative'
p2617
aS'admitting clerk'
p2618
aS'advertising account executive'
p2619
aS'advertising account manager'
p2620
aS'advertising associate'
p2621
aS'advertising consultant'
p2622
aS'advertising executive'
p2623
aS'advertising representative'
p2624
aS'advertising sales executive'
p2625
aS'advertising sales manager'
p2626
aS'aerospace engineer'
p2627
aS'agent service representative'
p2628
aS'air condition technician'
p2629
aS'air traffic controller'
p2630
aS'aircraft engine mechanic'
p2631
aS'aircraft engineer'
p2632
aS'aircraft painter'
p2633
aS'aircraft technician'
p2634
aS'airframe mechanic'
p2635
aS'airline agent'
p2636
aS'airline flight attendant'
p2637
aS'airline transport pilot'
p2638
aS'aix system administrator'
p2639
aS'aluminum welder'
p2640
aS'anesthesia technician'
p2641
aS'anesthetist'
p2642
aS'animal care technician'
p2643
aS'animal caretaker'
p2644
aS'animal officer'
p2645
aS'animal technician'
p2646
aS'antenna engineer'
p2647
aS'apartment assistant manager'
p2648
aS'apartment lease agent'
p2649
aS'apartment lease consultant'
p2650
aS'apartment manager'
p2651
aS'apartment property manager'
p2652
aS'apartment supervisor'
p2653
aS'application dba'
p2654
aS'application development manager'
p2655
aS'application software developer'
p2656
aS'application software engineer'
p2657
aS'application system analyst'
p2658
aS'appraisal specialist'
p2659
aS'apprentice electrician'
p2660
aS'aquatic director'
p2661
aS'architectural designer'
p2662
aS'archivist'
p2663
aS'armed service technician'
p2664
aS'art graphic designer'
p2665
aS'art instructor'
p2666
aS'artist'
p2667
aS'as400 administrator'
p2668
aS'as400 analyst'
p2669
aS'as400 developer'
p2670
aS'as400 operator'
p2671
aS'asbestos worker'
p2672
aS'ase technician'
p2673
aS'asp.net c# developer'
p2674
aS'asp.net developer'
p2675
aS'asset accountant'
p2676
aS'asset manager'
p2677
aS'assistant accounting manager'
p2678
aS'assistant bookkeeper'
p2679
aS'assistant education director'
p2680
aS'assistant executive housekeeper'
p2681
aS'assistant facility manager'
p2682
aS'assistant finance director'
p2683
aS'assistant food service director'
p2684
aS'assistant food service manager'
p2685
aS'assistant housekeeping manager'
p2686
aS'assistant instructor'
p2687
aS'assistant librarian'
p2688
aS'assistant marketing manager'
p2689
aS'assistant office manager'
p2690
aS'assistant professor'
p2691
aS'assistant property manager'
p2692
aS'assistant restaurant manager'
p2693
aS'assistant retail manager'
p2694
aS'assistant store manager'
p2695
aS'assistant teacher'
p2696
aS'assisted living administrator'
p2697
aS'assisted living coordinator'
p2698
aS'assisted living director'
p2699
aS'assisted living manager'
p2700
aS'associate account executive'
p2701
aS'associate account manager'
p2702
aS'associate accountant'
p2703
aS'associate actuary'
p2704
aS'associate attorney'
p2705
aS'associate buyer'
p2706
aS'associate dentist'
p2707
aS'associate editor'
p2708
aS'associate professor'
p2709
aS'associate project manager'
p2710
aS'associate recruiter'
p2711
aS'associate veterinarian'
p2712
aS'atm technician'
p2713
aS'audio technician'
p2714
aS'audio visual engineer'
p2715
aS'audiologist'
p2716
aS'audit accountant'
p2717
aS'audit associate'
p2718
aS'audit director'
p2719
aS'auto advisor'
p2720
aS'auto detailer'
p2721
aS'auto glass technician'
p2722
aS'auto manager'
p2723
aS'auto mechanic'
p2724
aS'auto service technician'
p2725
aS'auto shop manager'
p2726
aS'auto technician'
p2727
aS'auto technician mechanic'
p2728
aS'autocad drafter'
p2729
aS'autocad draftsman'
p2730
aS'automation engineer'
p2731
aS'automation specialist'
p2732
aS'automation technician'
p2733
aS'automotive advisor'
p2734
aS'automotive ase technician'
p2735
aS'automotive assistant'
p2736
aS'automotive consultant'
p2737
aS'automotive detailer'
p2738
aS'automotive lube technician'
p2739
aS'automotive mechanic'
p2740
aS'automotive professional'
p2741
aS'automotive representative'
p2742
aS'automotive salesperson'
p2743
aS'automotive service technician'
p2744
aS'automotive shop manager'
p2745
aS'avaya engineer'
p2746
aS'aviation manager'
p2747
aS'aviation mechanic'
p2748
aS'aviation technician'
p2749
aS'avionic engineer'
p2750
aS'avionic technician'
p2751
aS'b2b representative'
p2752
aS'b2b sales executive'
p2753
aS'b2b sales representative'
p2754
aS'baker manager'
p2755
aS'bakery assistant'
p2756
aS'bakery associate'
p2757
aS'bakery clerk'
p2758
aS'bakery manager'
p2759
aS'bakery manager assistant'
p2760
aS'bank manager'
p2761
aS'banker'
p2762
aS'banking assistant'
p2763
aS'banking consultant'
p2764
aS'banking manager'
p2765
aS'banking officer'
p2766
aS'banking representative'
p2767
aS'banking specialist'
p2768
aS'banquet bartender'
p2769
aS'banquet chef'
p2770
aS'banquet cook'
p2771
aS'barber'
p2772
aS'bartender manager'
p2773
aS'basketball coach'
p2774
aS'beautician'
p2775
aS'behavioral analyst'
p2776
aS'behavioral assistant'
p2777
aS'behavioral specialist'
p2778
aS'behavioral specialist consultant'
p2779
aS'behavioral technician'
p2780
aS'behavioral therapist'
p2781
aS'benefits analyst'
p2782
aS'benefits manager'
p2783
aS'bill clerk'
p2784
aS'bill coordinator'
p2785
aS'bill representative'
p2786
aS'bill specialist'
p2787
aS'billing analyst'
p2788
aS'billing collector'
p2789
aS'billing supervisor'
p2790
aS'bindery operator'
p2791
aS'bindery worker'
p2792
aS'biochemist'
p2793
aS'biomedical manager'
p2794
aS'biostatistician'
p2795
aS'body shop estimator'
p2796
aS'body shop manager'
p2797
aS'body shop technician'
p2798
aS'boiler operator'
p2799
aS'boiler technician'
p2800
aS'bookkeeper assistant'
p2801
aS'bookkeeper manager'
p2802
aS'branch administrator'
p2803
aS'branch director'
p2804
aS'branch teller'
p2805
aS'brick mason'
p2806
aS'broadband technician'
p2807
aS'broadcast engineer'
p2808
aS'budget executive'
p2809
aS'build maintenance technician'
p2810
aS'bus driver'
p2811
aS'bus operator'
p2812
aS'business account executive'
p2813
aS'business account manager'
p2814
aS'business administrator'
p2815
aS'business analyst manager'
p2816
aS'business architect'
p2817
aS'business assistant'
p2818
aS'business associate'
p2819
aS'business banker'
p2820
aS'business developer'
p2821
aS'business development analyst'
p2822
aS'business development assistant'
p2823
aS'business development consultant'
p2824
aS'business development coordinator'
p2825
aS'business development director'
p2826
aS'business development professional'
p2827
aS'business development specialist'
p2828
aS'business leader'
p2829
aS'business office assistant'
p2830
aS'business operation analyst'
p2831
aS'business operation director'
p2832
aS'business operation manager'
p2833
aS'business outside sales representative'
p2834
aS'business project manager'
p2835
aS'business quality assurance analyst'
p2836
aS'business sales manager'
p2837
aS'business sales representative'
p2838
aS'business specialist'
p2839
aS'butcher'
p2840
aS'c# .net developer'
p2841
aS'c# asp.net developer'
p2842
aS'c# developer'
p2843
aS'c#.net developer'
p2844
aS'c++ developer'
p2845
aS'c++ engineer'
p2846
aS'cable installation technician'
p2847
aS'cable installer technician'
p2848
aS'cable technician'
p2849
aS'cad designer'
p2850
aS'cad drafter'
p2851
aS'cad draftsman'
p2852
aS'cad engineer'
p2853
aS'cad manager'
p2854
aS'cad operator'
p2855
aS'cad technician'
p2856
aS'calibration technician'
p2857
aS'call center agent'
p2858
aS'call center analyst'
p2859
aS'call center associate'
p2860
aS'call center collector'
p2861
aS'call center customer service representative'
p2862
aS'call center director'
p2863
aS'call center leader'
p2864
aS'call center manager'
p2865
aS'call center operator'
p2866
aS'call center specialist'
p2867
aS'campaign manager'
p2868
aS'campus dean'
p2869
aS'car detailer'
p2870
aS'cardiac sonographer'
p2871
aS'cardiac technician'
p2872
aS'cardiology technician'
p2873
aS'cardiovascular technician'
p2874
aS'cardiovascular technologist'
p2875
aS'career services representative'
p2876
aS'carpet technician'
p2877
aS'case worker'
p2878
aS'cash specialist'
p2879
aS'cash teller'
p2880
aS'cashier assistant'
p2881
aS'cashier associate'
p2882
aS'cashier clerk'
p2883
aS'cashier manager'
p2884
aS'casino manager'
p2885
aS'casualty adjuster'
p2886
aS'casualty claim adjuster'
p2887
aS'cater coordinator'
p2888
aS'caterer'
p2889
aS'catering coordinator'
p2890
aS'cath lab manager'
p2891
aS'cdl bus driver'
p2892
aS'cdl delivery driver'
p2893
aS'cdl driver'
p2894
aS'cdl truck driver'
p2895
aS'central office technician'
p2896
aS'certified cna'
p2897
aS'certified counselor'
p2898
aS'certified dental assistant'
p2899
aS'certified medical coder'
p2900
aS'certified medication aide'
p2901
aS'certified medication technician'
p2902
aS'certified nurse'
p2903
aS'certified nurse aide'
p2904
aS'certified nursing aide'
p2905
aS'certified nursing cna'
p2906
aS'certified occupational therapist'
p2907
aS'certified phlebotomy technician'
p2908
aS'certified registered nurse'
p2909
aS'certified surgical technician'
p2910
aS'certified surgical technologist'
p2911
aS'chaplain'
p2912
aS'charge registered nurse'
p2913
aS'chauffeur'
p2914
aS'chemical operator'
p2915
aS'chemistry technician'
p2916
aS'child psychiatrist'
p2917
aS'child psychologist'
p2918
aS'child therapist'
p2919
aS'childcare assistant'
p2920
aS'childcare director'
p2921
aS'childcare teacher'
p2922
aS'childcare worker'
p2923
aS'children care assistant'
p2924
aS'children care director'
p2925
aS'children care teacher'
p2926
aS'children care worker'
p2927
aS'children director'
p2928
aS'children photographer'
p2929
aS'children welfare specialist'
p2930
aS'chiropractic assistant'
p2931
aS'chiropractor'
p2932
aS'choreographer'
p2933
aS'circulation manager'
p2934
aS'cisco engineer'
p2935
aS'cisco manager'
p2936
aS'citrix administrator'
p2937
aS'citrix engineer'
p2938
aS'city director'
p2939
aS'city driver'
p2940
aS'civil designer'
p2941
aS'civil structural engineer'
p2942
aS'claim adjuster'
p2943
aS'claim administrator'
p2944
aS'claim analyst'
p2945
aS'claim assistant'
p2946
aS'claim associate'
p2947
aS'claim auditor'
p2948
aS'claim clerk'
p2949
aS'claim consultant'
p2950
aS'claim coordinator'
p2951
aS'claim director'
p2952
aS'claim examiner'
p2953
aS'claim investigator'
p2954
aS'claim manager'
p2955
aS'claim representative'
p2956
aS'claim representative associate'
p2957
aS'claim specialist'
p2958
aS'claim supervisor'
p2959
aS'claim worker'
p2960
aS'classroom teacher'
p2961
aS'clerical assistant'
p2962
aS'clerical associate'
p2963
aS'clerical clerk'
p2964
aS'clerical specialist'
p2965
aS'clerical technician'
p2966
aS'clerk typist'
p2967
aS'client relation manager'
p2968
aS'client relation specialist'
p2969
aS'clinical assistant'
p2970
aS'clinical associate'
p2971
aS'clinical consultant'
p2972
aS'clinical coordinator'
p2973
aS'clinical counselor'
p2974
aS'clinical data analyst'
p2975
aS'clinical data assistant'
p2976
aS'clinical dietitian'
p2977
aS'clinical director'
p2978
aS'clinical documentation specialist'
p2979
aS'clinical educator'
p2980
aS'clinical laboratory scientist'
p2981
aS'clinical laboratory technician'
p2982
aS'clinical laboratory technologist'
p2983
aS'clinical manager'
p2984
aS'clinical nurse'
p2985
aS'clinical nurse educator'
p2986
aS'clinical nurse specialist'
p2987
aS'clinical pharmacist'
p2988
aS'clinical psychologist'
p2989
aS'clinical registered nurse'
p2990
aS'clinical research assistant'
p2991
aS'clinical research manager'
p2992
aS'clinical research nurse'
p2993
aS'clinical research specialist'
p2994
aS'clinical supervisor'
p2995
aS'clinical technician'
p2996
aS'clinical therapist'
p2997
aS'clinical trainer'
p2998
aS'clinician'
p2999
aS'cmm developer'
p3000
aS'cmm inspector'
p3001
aS'cmm operator'
p3002
aS'cna'
p3003
aS'cnc developer'
p3004
aS'cnc lathe machinist'
p3005
aS'cnc lathe operator'
p3006
aS'cnc machine operator'
p3007
aS'cnc mill machinist'
p3008
aS'cnc programmer'
p3009
aS'cobol developer'
p3010
aS'cognos administrator'
p3011
aS'cognos analyst'
p3012
aS'cognos consultant'
p3013
aS'cognos developer'
p3014
aS'collection agent'
p3015
aS'collection analyst'
p3016
aS'collection assistant'
p3017
aS'collection associate'
p3018
aS'collection clerk'
p3019
aS'collection coordinator'
p3020
aS'collection director'
p3021
aS'collection manager'
p3022
aS'collection representative'
p3023
aS'collection specialist'
p3024
aS'collection supervisor'
p3025
aS'college instructor'
p3026
aS'collision technician'
p3027
aS'combat engineer'
p3028
aS'commercial license driver'
p3029
aS'commission analyst'
p3030
aS'commission engineer'
p3031
aS'commission officer'
p3032
aS'commodity buyer'
p3033
aS'community associate'
p3034
aS'community development director'
p3035
aS'community health nurse'
p3036
aS'community leader'
p3037
aS'community outreach coordinator'
p3038
aS'community representative'
p3039
aS'community service associate'
p3040
aS'community service director'
p3041
aS'community service officer'
p3042
aS'community worker'
p3043
aS'compensation consultant'
p3044
aS'compensation specialist'
p3045
aS'compensation worker'
p3046
aS'compliance analyst'
p3047
aS'compliance officer'
p3048
aS'compressor technician'
p3049
aS'computer developer'
p3050
aS'computer operator'
p3051
aS'computer repair technician'
p3052
aS'computer support technician'
p3053
aS'computer system administrator'
p3054
aS'computer system analyst'
p3055
aS'computer system specialist'
p3056
aS'computer system technician'
p3057
aS'computer technician'
p3058
aS'concrete worker'
p3059
aS'construction estimator'
p3060
aS'construction foreperson'
p3061
aS'construction inspector'
p3062
aS'construction laborer'
p3063
aS'construction project manager'
p3064
aS'construction representative'
p3065
aS'construction scheduler'
p3066
aS'construction technician'
p3067
aS'content editor'
p3068
aS'content writer'
p3069
aS'contract accountant'
p3070
aS'contract attorney'
p3071
aS'contract coordinator'
p3072
aS'contract director'
p3073
aS'control engineer'
p3074
aS'control system engineer'
p3075
aS'coordinator registered nurse'
p3076
aS'copy assistant'
p3077
aS'copy clerk'
p3078
aS'core driller'
p3079
aS'corporate analyst'
p3080
aS'corporate associate'
p3081
aS'corporate consultant'
p3082
aS'corporate coordinator'
p3083
aS'corporate executive'
p3084
aS'corporate legal secretary'
p3085
aS'corporate manager'
p3086
aS'corporate recruiter'
p3087
aS'corporate representative'
p3088
aS'corporate specialist'
p3089
aS'corporate trainer'
p3090
aS'corrosion engineer'
p3091
aS'corrosion technician'
p3092
aS'cosmetic advisor'
p3093
aS'cosmetic consultant'
p3094
aS'cosmetic manager'
p3095
aS'cosmetologist'
p3096
aS'cosmetology instructor'
p3097
aS'cost accountant'
p3098
aS'cost accounting manager'
p3099
aS'cost analyst'
p3100
aS'cost estimator'
p3101
aS'costume designer'
p3102
aS'courier'
p3103
aS'courier driver'
p3104
aS'course developer'
p3105
aS'course instructor'
p3106
aS'courseware developer'
p3107
aS'court clerk'
p3108
aS'cpc coder'
p3109
aS'credit assistant'
p3110
aS'credit collection manager'
p3111
aS'credit officer'
p3112
aS'criminal justice associate'
p3113
aS'criminal justice instructor'
p3114
aS'critical care director'
p3115
aS'critical care nurse'
p3116
aS'critical care technician'
p3117
aS'crm analyst'
p3118
aS'crm consultant'
p3119
aS'crm developer'
p3120
aS'crm manager'
p3121
aS'curriculum coordinator'
p3122
aS'curriculum developer'
p3123
aS'curriculum director'
p3124
aS'custodian'
p3125
aS'customer account representative'
p3126
aS'customer account specialist'
p3127
aS'customer care agent'
p3128
aS'customer care assistant'
p3129
aS'customer care professional'
p3130
aS'customer care specialist'
p3131
aS'customer relation manager'
p3132
aS'customer relation representative'
p3133
aS'customer relation specialist'
p3134
aS'customer service administrative assistant'
p3135
aS'customer service administrator'
p3136
aS'customer service advisor'
p3137
aS'customer service analyst'
p3138
aS'customer service assistant'
p3139
aS'customer service call center representative'
p3140
aS'customer service clerk'
p3141
aS'customer service consultant'
p3142
aS'customer service coordinator'
p3143
aS'customer service csr representative'
p3144
aS'customer service director'
p3145
aS'customer service driver'
p3146
aS'customer service leader'
p3147
aS'customer service professional'
p3148
aS'customer service receptionist'
p3149
aS'customer service representative driver'
p3150
aS'customer service supervisor'
p3151
aS'customer support advisor'
p3152
aS'customer support agent'
p3153
aS'customer support analyst'
p3154
aS'customer support engineer'
p3155
aS'customer support manager'
p3156
aS'customer support representative'
p3157
aS'customer support supervisor'
p3158
aS'customer support technician'
p3159
aS'cut machine operator'
p3160
aS'early childhood director'
p3161
aS'echo technologist'
p3162
aS'echocardiographer'
p3163
aS'economic analyst'
p3164
aS'economic director'
p3165
aS'education coordinator'
p3166
aS'education counselor'
p3167
aS'education director'
p3168
aS'education instructor'
p3169
aS'education teacher'
p3170
aS'educator'
p3171
aS'eeg technician'
p3172
aS'eeg technologist'
p3173
aS'ekg technician'
p3174
aS'electrical drafter'
p3175
aS'electrical power engineer'
p3176
aS'electrician helper'
p3177
aS'electrician technician'
p3178
aS'electro mechanical assembler'
p3179
aS'electro mechanical technician'
p3180
aS'electromechanical assembler'
p3181
aS'electronic engineer'
p3182
aS'electronic system technician'
p3183
aS'electronic test technician'
p3184
aS'embedded developer'
p3185
aS'embedded engineer'
p3186
aS'embosser'
p3187
aS'embroidery supervisor'
p3188
aS'emergency department director'
p3189
aS'emergency department manager'
p3190
aS'emergency department nurse'
p3191
aS'emergency department technician'
p3192
aS'emergency manager'
p3193
aS'employee relation manager'
p3194
aS'employee relation specialist'
p3195
aS'emt'
p3196
aS'endocrinologist'
p3197
aS'engineer project manager'
p3198
aS'engineer, unclassified'
p3199
aS'engineering director'
p3200
aS'engineering specialist'
p3201
aS'english instructor'
p3202
aS'english teacher'
p3203
aS'engraver'
p3204
aS'enrollment advisor'
p3205
aS'enrollment counselor'
p3206
aS'enrollment manager'
p3207
aS'enrollment representative'
p3208
aS'enrollment specialist'
p3209
aS'enterprise manager'
p3210
aS'entry clerk'
p3211
aS'environmental associate'
p3212
aS'environmental consultant'
p3213
aS'environmental coordinator'
p3214
aS'environmental director'
p3215
aS'environmental manager'
p3216
aS'environmental planner'
p3217
aS'environmental project manager'
p3218
aS'environmental scientist'
p3219
aS'environmental supervisor'
p3220
aS'environmental technician'
p3221
aS'equipment driver'
p3222
aS'equity analyst'
p3223
aS'equity trader'
p3224
aS'er nurse'
p3225
aS'er technician'
p3226
aS'erp business analyst'
p3227
aS'erp project manager'
p3228
aS'escrow assistant'
p3229
aS'escrow officer'
p3230
aS'esl instructor'
p3231
aS'essbase developer'
p3232
aS'esthetician'
p3233
aS'estimation manager'
p3234
aS'estimator manager'
p3235
aS'etl architect'
p3236
aS'etl consultant'
p3237
aS'etl developer'
p3238
aS'etl informatica developer'
p3239
aS'event director'
p3240
aS'event manager'
p3241
aS'event representative'
p3242
aS'event specialist'
p3243
aS'executive administrative assistant'
p3244
aS'executive office manager'
p3245
aS'executive recruiter'
p3246
aS'executive secretary'
p3247
aS'executive sous chef'
p3248
aS'exercise physiologist'
p3249
aS'exercise specialist'
p3250
aS'export coordinator'
p3251
aS'export specialist'
p3252
aS'external auditor'
p3253
aS'facility coordinator'
p3254
aS'facility director'
p3255
aS'facility engineer'
p3256
aS'facility maintenance manager'
p3257
aS'facility service associate'
p3258
aS'facility service manager'
p3259
aS'facility supervisor'
p3260
aS'facility technician'
p3261
aS'faculty instructor'
p3262
aS'failure analysis engineer'
p3263
aS'family counselor'
p3264
aS'family medicine physician'
p3265
aS'family nurse'
p3266
aS'family nurse practitioner'
p3267
aS'family physician'
p3268
aS'farm manager'
p3269
aS'farm supervisor'
p3270
aS'farm worker'
p3271
aS'farmer'
p3272
aS'fashion designer'
p3273
aS'fast food manager'
p3274
aS'fha underwriter'
p3275
aS'field representative, unclassified'
p3276
aS'field sales manager'
p3277
aS'field sales representative'
p3278
aS'file receptionist'
p3279
aS'film editor'
p3280
aS'finance accountant'
p3281
aS'finance accounting manager'
p3282
aS'finance advisor'
p3283
aS'finance analysis director'
p3284
aS'finance analyst'
p3285
aS'finance assistant'
p3286
aS'finance associate'
p3287
aS'finance consultant'
p3288
aS'finance controller'
p3289
aS'finance coordinator'
p3290
aS'finance counselor'
p3291
aS'finance manager'
p3292
aS'finance officer'
p3293
aS'finance professional'
p3294
aS'finance report accountant'
p3295
aS'finance report analyst'
p3296
aS'finance representative'
p3297
aS'finance specialist'
p3298
aS'finance supervisor'
p3299
aS'finance system analyst'
p3300
aS'finance system manager'
p3301
aS'financial administrator'
p3302
aS'financial analysis manager'
p3303
aS'financial auditor'
p3304
aS'financial business analyst'
p3305
aS'financial collecty'
p3306
aS'financial counselor'
p3307
aS'financial developer'
p3308
aS'financial director'
p3309
aS'financial engineer'
p3310
aS'financial executive'
p3311
aS'financial project manager'
p3312
aS'financial reporting director'
p3313
aS'financial reporting manager'
p3314
aS'fire engineer'
p3315
aS'fire fighter'
p3316
aS'fire inspector'
p3317
aS'fire investigator'
p3318
aS'fire protectiom engineer'
p3319
aS'fire technician'
p3320
aS'firefighter'
p3321
aS'fireman'
p3322
aS'firewall engineer'
p3323
aS'fitness coach'
p3324
aS'fitness director'
p3325
aS'fitness instructor'
p3326
aS'fitness manager'
p3327
aS'fitness specialist'
p3328
aS'flash designer'
p3329
aS'flash developer'
p3330
aS'flatbed driver'
p3331
aS'flight engineer'
p3332
aS'floor manager'
p3333
aS'floor supervisor'
p3334
aS'floor technician'
p3335
aS'floral designer'
p3336
aS'floral manager'
p3337
aS'florist'
p3338
aS'food cook'
p3339
aS'food director'
p3340
aS'food handler'
p3341
aS'food manager'
p3342
aS'food production manager'
p3343
aS'food production worker'
p3344
aS'food service assistant'
p3345
aS'food service director'
p3346
aS'food service manager'
p3347
aS'food service specialist'
p3348
aS'food service supervisor'
p3349
aS'food service team member'
p3350
aS'food service worker'
p3351
aS'football coach'
p3352
aS'forensic engineer'
p3353
aS'forensic scientist'
p3354
aS'forestry technician'
p3355
aS'fork lift driver'
p3356
aS'fork lift operator'
p3357
aS'forklift driver'
p3358
aS'forklift operator'
p3359
aS'franchise business consultant'
p3360
aS'franchise consultant'
p3361
aS'franchise manager'
p3362
aS'freight agent'
p3363
aS'freight broker'
p3364
aS'freight handler'
p3365
aS'front desk representative'
p3366
aS'front desk supervisor'
p3367
aS'fuel driver'
p3368
aS'fuel manager'
p3369
aS'fuel technician'
p3370
aS'fundraising coordinator'
p3371
aS'fundraising director'
p3372
aS'funeral director'
p3373
aS'game advisor'
p3374
aS'game designer'
p3375
aS'game developer'
p3376
aS'game manager'
p3377
aS'game supervisor'
p3378
aS'game technician'
p3379
aS'game tester'
p3380
aS'gardener'
p3381
aS'gas technician'
p3382
aS'general contractor'
p3383
aS'general counsel assistant'
p3384
aS'general counsel associate'
p3385
aS'geologic technician'
p3386
aS'geologist'
p3387
aS'geotechnical engineer'
p3388
aS'geriatric nursing assistant'
p3389
aS'gis analyst'
p3390
aS'gis developer'
p3391
aS'gis engineer'
p3392
aS'gis manager'
p3393
aS'gis specialist'
p3394
aS'gis technician'
p3395
aS'golf assistant'
p3396
aS'golf manager'
p3397
aS'government administrator'
p3398
aS'government contractor'
p3399
aS'government director'
p3400
aS'government manager'
p3401
aS'government specialist'
p3402
aS'grade teacher'
p3403
aS'graduate nurse'
p3404
aS'graduate research assistant'
p3405
aS'graphic design specialist'
p3406
aS'grinder operator'
p3407
aS'grocery clerk'
p3408
aS'grocery manager'
p3409
aS'guest service associate'
p3410
aS'gynecologist'
p3411
aS'hairdresser'
p3412
aS'hairstylist'
p3413
aS'hardware support technician'
p3414
aS'hardware technician'
p3415
aS'hazardous material technician'
p3416
aS'hazmat driver'
p3417
aS'hazmat technician'
p3418
aS'health aide'
p3419
aS'health associate'
p3420
aS'health center manager'
p3421
aS'health coach'
p3422
aS'health coordinator'
p3423
aS'health director'
p3424
aS'health nurse'
p3425
aS'health professional'
p3426
aS'health registered nurse'
p3427
aS'health service administrator'
p3428
aS'health service director'
p3429
aS'health specialist'
p3430
aS'health technician'
p3431
aS'healthcare business analyst'
p3432
aS'healthcare project manager'
p3433
aS'hearing aid specialist'
p3434
aS'heavy equipment mechanic'
p3435
aS'heavy equipment operator'
p3436
aS'help desk administrator'
p3437
aS'help desk agent'
p3438
aS'help desk analyst'
p3439
aS'help desk engineer'
p3440
aS'help desk manager'
p3441
aS'help desk representative'
p3442
aS'help desk supervisor'
p3443
aS'help desk support analyst'
p3444
aS'help desk support specialist'
p3445
aS'help desk support technician'
p3446
aS'histology manager'
p3447
aS'histology technician'
p3448
aS'historian'
p3449
aS'history instructor'
p3450
aS'history teacher'
p3451
aS'histotechnologist'
p3452
aS'home builder'
p3453
aS'home health administrator'
p3454
aS'home health aide'
p3455
aS'home health cna'
p3456
aS'home health coordinator'
p3457
aS'home health director'
p3458
aS'home health manager'
p3459
aS'home health registered nurse'
p3460
aS'horse trainer'
p3461
aS'hospice administrator'
p3462
aS'hospice aide'
p3463
aS'hospice coordinator'
p3464
aS'hospice director'
p3465
aS'hospice manager'
p3466
aS'hospital nurse'
p3467
aS'hospital pharmacist'
p3468
aS'hotel director'
p3469
aS'hotel general manager'
p3470
aS'hotel manager'
p3471
aS'housekeeping aide'
p3472
aS'housekeeping assistant'
p3473
aS'housekeeping attendant'
p3474
aS'housekeeping director'
p3475
aS'housekeeping manager'
p3476
aS'hr administrator'
p3477
aS'hr analyst'
p3478
aS'hr assistant'
p3479
aS'hr clerk'
p3480
aS'hr consultant'
p3481
aS'hr coordinator'
p3482
aS'hr director'
p3483
aS'hr generalist'
p3484
aS'hr manager'
p3485
aS'hr recruiter'
p3486
aS'hr representative'
p3487
aS'hr specialist'
p3488
aS'hris analyst'
p3489
aS'hris specialist'
p3490
aS'human resources analyst'
p3491
aS'human resources associate'
p3492
aS'human resources clerk'
p3493
aS'human resources coordinator'
p3494
aS'human resources supervisor'
p3495
aS'human service specialist'
p3496
aS'hvac engineer'
p3497
aS'hvac instructor'
p3498
aS'hvac manager'
p3499
aS'hvac technician'
p3500
aS'hydrogeologist'
p3501
aS'hygienist'
p3502
aS'hyperion administrator'
p3503
aS'hyperion analyst'
p3504
aS'hyperion developer'
p3505
aS'hyperion essbase developer'
p3506
aS'icu nurse'
p3507
aS'import coordinator'
p3508
aS'import manager'
p3509
aS'import specialist'
p3510
aS'import/export agent'
p3511
aS'import/export manager'
p3512
aS'industrial designer'
p3513
aS'industrial maintenance mechanic'
p3514
aS'industrial maintenance technician'
p3515
aS'industrial mechanic'
p3516
aS'infection nurse'
p3517
aS'informatica developer'
p3518
aS'informatica etl developer'
p3519
aS'information technology business analyst'
p3520
aS'information technology project manager'
p3521
aS'infrastructure analyst'
p3522
aS'infrastructure architect'
p3523
aS'infrastructure director'
p3524
aS'infrastructure engineer'
p3525
aS'infusion nurse'
p3526
aS'inside sales account executive'
p3527
aS'inside sales account manager'
p3528
aS'inside sales agent'
p3529
aS'inside sales assistant'
p3530
aS'inside sales associate'
p3531
aS'inside sales coordinator'
p3532
aS'inside sales director'
p3533
aS'inside sales executive'
p3534
aS'inside sales professional'
p3535
aS'inside sales recruiter'
p3536
aS'inside sales specialist'
p3537
aS'inside sales supervisor'
p3538
aS'installation coordinator'
p3539
aS'installation manager'
p3540
aS'installation specialist'
p3541
aS'installation supervisor'
p3542
aS'installation technician'
p3543
aS'instructional designer'
p3544
aS'instrument repair technician'
p3545
aS'instrument technician'
p3546
aS'insurance clerk'
p3547
aS'insurance executive'
p3548
aS'insurance sales agent'
p3549
aS'insurance sales manager'
p3550
aS'insurance underwriter'
p3551
aS'integration consultant'
p3552
aS'intellectual property paralegal'
p3553
aS'interior design consultant'
p3554
aS'interior designer'
p3555
aS'internal control manager'
p3556
aS'internal medicine physician'
p3557
aS'internist'
p3558
aS'inventory accountant'
p3559
aS'inventory assistant'
p3560
aS'inventory associate'
p3561
aS'inventory auditor'
p3562
aS'inventory clerk'
p3563
aS'inventory control clerk'
p3564
aS'inventory control coordinator'
p3565
aS'inventory control manager'
p3566
aS'inventory control specialist'
p3567
aS'inventory control supervisor'
p3568
aS'inventory coordinator'
p3569
aS'inventory manager'
p3570
aS'inventory representative'
p3571
aS'inventory specialist'
p3572
aS'inventory supervisor'
p3573
aS'inventory technician'
p3574
aS'investment analyst'
p3575
aS'investment associate'
p3576
aS'investment consultant'
p3577
aS'investment executive'
p3578
aS'investment firm advisor'
p3579
aS'investment manager'
p3580
aS'iphone developer'
p3581
aS'ironworker'
p3582
aS'irrigation technician'
p3583
aS'iv technician'
p3584
aS'jailer'
p3585
aS'janitor'
p3586
aS'janitorial manager'
p3587
aS'janitorial supervisor'
p3588
aS'java architect'
p3589
aS'java consultant'
p3590
aS'java engineer'
p3591
aS'javascript developer'
p3592
aS'jewelry associate'
p3593
aS'jewelry consultant'
p3594
aS'jewelry designer'
p3595
aS'jewelry manager'
p3596
aS'jewelry specialist'
p3597
aS'juris doctor'
p3598
aS'kennel attendant'
p3599
aS'key account executive'
p3600
aS'kindergarten teacher'
p3601
aS'kitchen crew members'
p3602
aS'kitchen designer'
p3603
aS'kitchen help'
p3604
aS'kitchen helper'
p3605
aS'kitchen staff'
p3606
aS'kitchen supervisor'
p3607
aS'labor relations manager'
p3608
aS'laboratory analyst'
p3609
aS'laboratory associate'
p3610
aS'laboratory director'
p3611
aS'laboratory manager'
p3612
aS'laboratory supervisor'
p3613
aS'laboratory technologist'
p3614
aS'lan administrator'
p3615
aS'land surveyor'
p3616
aS'landscape architect'
p3617
aS'landscape designer'
p3618
aS'landscape foreperson'
p3619
aS'landscape laborer'
p3620
aS'landscape manager'
p3621
aS'landscape supervisor'
p3622
aS'landscape technician'
p3623
aS'landscaper'
p3624
aS'language pathologist'
p3625
aS'lathe machinist'
p3626
aS'lathe operator'
p3627
aS'law attorney'
p3628
aS'law clerk'
p3629
aS'law paralegal'
p3630
aS'lead generation specialist'
p3631
aS'lease agent'
p3632
aS'lease manager'
p3633
aS'legal assistant'
p3634
aS'legal clerk'
p3635
aS'legal paralegal'
p3636
aS'librarian'
p3637
aS'library assistant'
p3638
aS'library director'
p3639
aS'licensed massage therapist'
p3640
aS'licensed pharmacist'
p3641
aS'licensed physical therapist'
p3642
aS'licensed practical nurse'
p3643
aS'licensed registered nurse'
p3644
aS'licensed vocational nurse'
p3645
aS'limousine driver'
p3646
aS'linguist'
p3647
aS'linux administrator'
p3648
aS'linux developer'
p3649
aS'linux engineer'
p3650
aS'litigation associate'
p3651
aS'litigation attorney'
p3652
aS'litigation legal assistant'
p3653
aS'litigation legal secretary'
p3654
aS'litigation manager'
p3655
aS'litigation paralegal'
p3656
aS'litigation secretary'
p3657
aS'litigation specialist'
p3658
aS'load runner'
p3659
aS'loan administrator'
p3660
aS'loan analyst'
p3661
aS'loan assistant'
p3662
aS'loan associate'
p3663
aS'loan auditor'
p3664
aS'loan clerk'
p3665
aS'loan closer'
p3666
aS'loan consultant'
p3667
aS'loan coordinator'
p3668
aS'loan counselor'
p3669
aS'loan document specialist'
p3670
aS'loan documentation specialist'
p3671
aS'loan manager'
p3672
aS'loan mortgage officer'
p3673
aS'loan origin officer'
p3674
aS'loan specialist'
p3675
aS'locksmith'
p3676
aS'logistician'
p3677
aS'logistics analyst'
p3678
aS'logistics assistant'
p3679
aS'logistics clerk'
p3680
aS'logistics coordinator'
p3681
aS'logistics specialist'
p3682
aS'logistics supervisor'
p3683
aS'loss mitigation specialist'
p3684
aS'loss prevention agent'
p3685
aS'loss prevention associate'
p3686
aS'loss prevention manager'
p3687
aS'lot attendant'
p3688
aS'lpn'
p3689
aS'lube technician'
p3690
aS'lvn'
p3691
aS'machinist'
p3692
aS'macromedia director'
p3693
aS'maid'
p3694
aS'mail handler'
p3695
aS'mail room clerk'
p3696
aS'mail room supervisor'
p3697
aS'mailroom assistant'
p3698
aS'mailroom clerk'
p3699
aS'mailroom coordinator'
p3700
aS'mailroom manager'
p3701
aS'mailroom supervisor'
p3702
aS'mainframe analyst'
p3703
aS'mainframe developer'
p3704
aS'maintenance assistant'
p3705
aS'maintenance coordinator'
p3706
aS'maintenance director'
p3707
aS'maintenance electrician'
p3708
aS'maintenance manager'
p3709
aS'maintenance mechanic'
p3710
aS'maintenance planner'
p3711
aS'maintenance specialist'
p3712
aS'maintenance superintendent'
p3713
aS'maintenance supervisor'
p3714
aS'major account executive'
p3715
aS'major account representative'
p3716
aS'makeup artist'
p3717
aS'mammography technician'
p3718
aS'mammography technologist'
p3719
aS'manager registered nurse'
p3720
aS'manager salesperson'
p3721
aS'manager, surgical services'
p3722
aS'manicurist'
p3723
aS'manufacturing analyst'
p3724
aS'manufacturing associate'
p3725
aS'manufacturing business analyst'
p3726
aS'manufacturing coordinator'
p3727
aS'manufacturing director'
p3728
aS'manufacturing executive'
p3729
aS'manufacturing leader'
p3730
aS'manufacturing manager'
p3731
aS'manufacturing operator'
p3732
aS'manufacturing planner'
p3733
aS'manufacturing project manager'
p3734
aS'manufacturing specialist'
p3735
aS'manufacturing supervisor'
p3736
aS'marine mechanic'
p3737
aS'marine technician'
p3738
aS'market account manager'
p3739
aS'market analyst'
p3740
aS'market development representative'
p3741
aS'market development specialist'
p3742
aS'market director'
p3743
aS'market leader'
p3744
aS'market manager'
p3745
aS'market research associate'
p3746
aS'market research manager'
p3747
aS'market sales manager'
p3748
aS'marketing account executive'
p3749
aS'marketing account manager'
p3750
aS'marketing administrator'
p3751
aS'marketing developer'
p3752
aS'marketing executive'
p3753
aS'marketing leader'
p3754
aS'marketing product manager'
p3755
aS'marketing professional'
p3756
aS'marketing program executive'
p3757
aS'marketing program manager'
p3758
aS'marketing representative'
p3759
aS'marketing research analyst'
p3760
aS'marketing sales leader'
p3761
aS'marketing sales representative'
p3762
aS'marketing strategic developer'
p3763
aS'marriage family therapist'
p3764
aS'massage therapist'
p3765
aS'math instructor'
p3766
aS'math teacher'
p3767
aS'math tutor'
p3768
aS'mathematical teacher'
p3769
aS'mathematician'
p3770
aS'mds nurse'
p3771
aS'mechanic automotive technician'
p3772
aS'mechanical assembler'
p3773
aS'mechanical drafter'
p3774
aS'mechanical inspector'
p3775
aS'mechanical pe engineer'
p3776
aS'media relation coordinator'
p3777
aS'media relation director'
p3778
aS'medical administrative assistant'
p3779
aS'medical assistant'
p3780
aS'medical bill clerk'
p3781
aS'medical bill manager'
p3782
aS'medical bill specialist'
p3783
aS'medical case manager'
p3784
aS'medical certified assistant'
p3785
aS'medical clerk'
p3786
aS'medical coder'
p3787
aS'medical coding specialist'
p3788
aS'medical device manager'
p3789
aS'medical director'
p3790
aS'medical doctor'
p3791
aS'medical engineer'
p3792
aS'medical laboratory technician'
p3793
aS'medical manager'
p3794
aS'medical nurse'
p3795
aS'medical office administrator'
p3796
aS'medical office assistant'
p3797
aS'medical office coordinator'
p3798
aS'medical office manager'
p3799
aS'medical office receptionist'
p3800
aS'medical office specialist'
p3801
aS'medical pediatric assistant'
p3802
aS'medical phlebotomist'
p3803
aS'medical physician'
p3804
aS'medical record assistant'
p3805
aS'medical record clerk'
p3806
aS'medical record coordinator'
p3807
aS'medical recruiter'
p3808
aS'medical registered nurse'
p3809
aS'medical social worker'
p3810
aS'medical sonographer'
p3811
aS'medical surgery nurse'
p3812
aS'medical technologist'
p3813
aS'medical transcriptionist'
p3814
aS'medical/dental/ins sales representative'
p3815
aS'medicare specialist'
p3816
aS'medication aide'
p3817
aS'medicine physician'
p3818
aS'meet coordinator'
p3819
aS'mental health associate'
p3820
aS'mental health clinician'
p3821
aS'mental health coordinator'
p3822
aS'mental health professional'
p3823
aS'mental health specialist'
p3824
aS'mental health technician'
p3825
aS'mental health therapist'
p3826
aS'mental health worker'
p3827
aS'merchandising coordinator'
p3828
aS'merchandising representative'
p3829
aS'merchandising specialist'
p3830
aS'merchandising supervisor'
p3831
aS'metal supervisor'
p3832
aS'metallurgical technician'
p3833
aS'microbiology technician'
p3834
aS'microbiology technologist'
p3835
aS'microstrategy developer'
p3836
aS'microwave engineer'
p3837
aS'microwave technician'
p3838
aS'middle school principal'
p3839
aS'middle school teacher'
p3840
aS'midwife'
p3841
aS'mig welder'
p3842
aS'military analyst'
p3843
aS'military police officer'
p3844
aS'mill machinist'
p3845
aS'mill operator'
p3846
aS'mine manager'
p3847
aS'miner'
p3848
aS'mobile application developer'
p3849
aS'mobile developer'
p3850
aS'mold maker'
p3851
aS'mold operator'
p3852
aS'mold supervisor'
p3853
aS'mold technician'
p3854
aS'molecular biologist'
p3855
aS'mortgage analyst'
p3856
aS'mortgage assistant'
p3857
aS'mortgage branch manager'
p3858
aS'mortgage broker'
p3859
aS'mortgage closer'
p3860
aS'mortgage collector'
p3861
aS'mortgage loan closer'
p3862
aS'mortgage loan officer'
p3863
aS'mortgage loan specialist'
p3864
aS'mortgage manager'
p3865
aS'mortgage underwriter'
p3866
aS'motor coach'
p3867
aS'motorcycle mechanic'
p3868
aS'motorcycle technician'
p3869
aS'mri technician'
p3870
aS'mri technologist'
p3871
aS'ms sql dba'
p3872
aS'multimedia journalist'
p3873
aS'music director'
p3874
aS'music teacher'
p3875
aS'music therapist'
p3876
aS'musician'
p3877
aS'mysql developer'
p3878
aS'.net architect'
p3879
aS'.net engineer'
p3880
aS'.net web developer'
p3881
aS'nail technician'
p3882
aS'nanny'
p3883
aS'national account executive'
p3884
aS'national account manager'
p3885
aS'national sales director'
p3886
aS'national sales executive'
p3887
aS'navy architect'
p3888
aS'network administrator'
p3889
aS'network analyst'
p3890
aS'network consultant'
p3891
aS'network coordinator'
p3892
aS'network director'
p3893
aS'network engineer administrator'
p3894
aS'network manager'
p3895
aS'network security engineer'
p3896
aS'network specialist'
p3897
aS'network support technician'
p3898
aS'network system administrator'
p3899
aS'network technician'
p3900
aS'neurologist'
p3901
aS'news editor'
p3902
aS'news leader'
p3903
aS'non commission officer'
p3904
aS'nonprofit manager'
p3905
aS'nuclear medicine technologist'
p3906
aS'nurse'
p3907
aS'nurse aide'
p3908
aS'nurse assistant'
p3909
aS'nurse case manager'
p3910
aS'nurse clinical manager'
p3911
aS'nurse clinician'
p3912
aS'nurse educator'
p3913
aS'nurse liaison'
p3914
aS'nurse manager'
p3915
aS'nurse prn'
p3916
aS'nurse recruiter'
p3917
aS'nurse specialist'
p3918
aS'nurse supervisor'
p3919
aS'nursing administrator'
p3920
aS'nursing assistant'
p3921
aS'nursing associate'
p3922
aS'nursing cna'
p3923
aS'nursing coordinator'
p3924
aS'nursing home assistant'
p3925
aS'nursing instructor'
p3926
aS'nursing manager'
p3927
aS'nursing professional'
p3928
aS'nursing registered nurse'
p3929
aS'nursing supervisor'
p3930
aS'nutrition assistant'
p3931
aS'nutrition director'
p3932
aS'nutrition educator'
p3933
aS'nutrition manager'
p3934
aS'nutrition specialist'
p3935
aS'nutritionist'
p3936
aS'ob technician'
p3937
aS'obstetrician'
p3938
aS'occupational health nurse'
p3939
aS'office administrative assistant'
p3940
aS'office administrator'
p3941
aS'office executive'
p3942
aS'office executive assistant'
p3943
aS'office manager assistant'
p3944
aS'office medical assistant'
p3945
aS'office receptionist'
p3946
aS'office secretary'
p3947
aS'officer security guard'
p3948
aS'offset press operator'
p3949
aS'oil technician'
p3950
aS'oncologist'
p3951
aS'oncology manager'
p3952
aS'oncology nurse'
p3953
aS'oncology pharmacist'
p3954
aS'operating engineer'
p3955
aS'operation engineer'
p3956
aS'operation research analyst'
p3957
aS'ophthalmic assistant'
p3958
aS'ophthalmic technician'
p3959
aS'optical engineer'
p3960
aS'optician'
p3961
aS'optometrist'
p3962
aS'optometrist assistant'
p3963
aS'optometry assistant'
p3964
aS'optometry technician'
p3965
aS'oracle analyst'
p3966
aS'oracle architect'
p3967
aS'oracle consultant'
p3968
aS'oracle dba'
p3969
aS'oracle dba developer'
p3970
aS'oracle developer'
p3971
aS'oracle manager'
p3972
aS'oracle specialist'
p3973
aS'oral surgeon'
p3974
aS'order puller'
p3975
aS'ordnance technician'
p3976
aS'organic chemist'
p3977
aS'orthodontic assistant'
p3978
aS'orthodontic technician'
p3979
aS'orthodontist'
p3980
aS'orthodontist assistant'
p3981
aS'otr driver'
p3982
aS'outbound sales representative'
p3983
aS'outside sales account executive'
p3984
aS'outside sales account manager'
p3985
aS'outside sales associate'
p3986
aS'outside sales consultant'
p3987
aS'outside sales executive'
p3988
aS'outside sales inspector'
p3989
aS'outside sales manager'
p3990
aS'outside sales professional'
p3991
aS'package handler'
p3992
aS'packaging associate'
p3993
aS'packaging manager'
p3994
aS'packaging mechanic'
p3995
aS'packaging operator'
p3996
aS'packaging specialist'
p3997
aS'packaging supervisor'
p3998
aS'packaging technician'
p3999
aS'paint supervisor'
p4000
aS'paint technician'
p4001
aS'paralegal assistant'
p4002
aS'paramedic'
p4003
aS'paraprofessional'
p4004
aS'pastor'
p4005
aS'patent agent'
p4006
aS'patent attorney'
p4007
aS'patent paralegal'
p4008
aS'pathologist'
p4009
aS'patient account director'
p4010
aS'patient account manager'
p4011
aS'patient account representative'
p4012
aS'patient account specialist'
p4013
aS'patient care assistant'
p4014
aS'patient care associate'
p4015
aS'patient care director'
p4016
aS'patient care manager'
p4017
aS'patient care nurse'
p4018
aS'patient care representative'
p4019
aS'patient care specialist'
p4020
aS'patient care technician'
p4021
aS'patient nurse'
p4022
aS'patient physician'
p4023
aS'paver operator'
p4024
aS'payroll administrator'
p4025
aS'payroll analyst'
p4026
aS'payroll assistant'
p4027
aS'payroll associate'
p4028
aS'payroll clerk'
p4029
aS'payroll consultant'
p4030
aS'payroll coordinator'
p4031
aS'payroll director'
p4032
aS'payroll manager'
p4033
aS'payroll professional'
p4034
aS'payroll representative'
p4035
aS'payroll specialist'
p4036
aS'payroll supervisor'
p4037
aS'payroll tax specialist'
p4038
aS'pbx operator'
p4039
aS'pbx technician'
p4040
aS'pc specialist'
p4041
aS'pc support technician'
p4042
aS'pc technician'
p4043
aS'pe electrical engineer'
p4044
aS'pediatric dentist'
p4045
aS'pediatric doctor'
p4046
aS'pediatric nurse'
p4047
aS'pediatric nurse practitioner'
p4048
aS'pediatric registered nurse'
p4049
aS'pediatrician'
p4050
aS'peoplesoft analyst'
p4051
aS'peoplesoft developer'
p4052
aS'perioperative director'
p4053
aS'perl developer'
p4054
aS'personal care aide'
p4055
aS'personal care assistant'
p4056
aS'personal care attendant'
p4057
aS'personal driver'
p4058
aS'personal injury attorney'
p4059
aS'personal injury paralegal'
p4060
aS'personnel assistant'
p4061
aS'pest technician'
p4062
aS'petroleum project manager'
p4063
aS'petroleum specialist'
p4064
aS'pharmaceutical sales representative'
p4065
aS'pharmacist'
p4066
aS'pharmacist manager'
p4067
aS'pharmacy analyst'
p4068
aS'pharmacy coordinator'
p4069
aS'pharmacy director'
p4070
aS'pharmacy manager'
p4071
aS'pharmacy pharmacist'
p4072
aS'pharmacy specialist'
p4073
aS'pharmacy supervisor'
p4074
aS'pharmacy technician'
p4075
aS'pharmacy technician instructor'
p4076
aS'phlebotomist'
p4077
aS'phlebotomy representative'
p4078
aS'phlebotomy supervisor'
p4079
aS'phlebotomy technician'
p4080
aS'phone interviewer'
p4081
aS'phone operator'
p4082
aS'phone sales representative'
p4083
aS'phone technician'
p4084
aS'photo specialist'
p4085
aS'photojournalist'
p4086
aS'php engineer'
p4087
aS'physical rehabilitation therapist'
p4088
aS'physical therapy assistant'
p4089
aS'physical therapy director'
p4090
aS'physical therapy technician'
p4091
aS'physician assistant'
p4092
aS'physician assistant, surgical'
p4093
aS'physician recruiter'
p4094
aS'physicist'
p4095
aS'physics technician'
p4096
aS'pipe welder'
p4097
aS'piping designer'
p4098
aS'plant supervisor'
p4099
aS'plastic engineer'
p4100
aS'plc developer'
p4101
aS'plc engineer'
p4102
aS'plc technician'
p4103
aS'plumber helper'
p4104
aS'plumbing manager'
p4105
aS'plumbing technician'
p4106
aS'podiatrist'
p4107
aS'police dispatcher'
p4108
aS'pool attendant'
p4109
aS'pool technician'
p4110
aS'porter'
p4111
aS'portfolio administrator'
p4112
aS'portfolio analyst'
p4113
aS'pre-press manager'
p4114
aS'pre-press operator'
p4115
aS'pre-press specialist'
p4116
aS'pre-press technician'
p4117
aS'preschool teacher'
p4118
aS'principal electrical engineer'
p4119
aS'principal engineer'
p4120
aS'principal mechanical engineer'
p4121
aS'principal network engineer'
p4122
aS'principal software engineer'
p4123
aS'print operator'
p4124
aS'print press operator'
p4125
aS'print production manager'
p4126
aS'printer technician'
p4127
aS'prn nurse'
p4128
aS'process developer'
p4129
aS'process improvement analyst'
p4130
aS'process improvement engineer'
p4131
aS'process improvement manager'
p4132
aS'procurement agent'
p4133
aS'procurement assistant'
p4134
aS'procurement clerk'
p4135
aS'procurement coordinator'
p4136
aS'procurement director'
p4137
aS'procurement engineer'
p4138
aS'procurement manager'
p4139
aS'product analyst'
p4140
aS'product marketing director'
p4141
aS'product marketing specialist'
p4142
aS'production associate'
p4143
aS'production line worker'
p4144
aS'production operator'
p4145
aS'production scheduler'
p4146
aS'professional engineer'
p4147
aS'professional nurse'
p4148
aS'professional recruiter'
p4149
aS'professional sales representative'
p4150
aS'professional salesperson'
p4151
aS'professor'
p4152
aS'program director'
p4153
aS'project architect'
p4154
aS'project business manager'
p4155
aS'project manager analyst'
p4156
aS'project manager consultant'
p4157
aS'project pmp manager'
p4158
aS'projectionist'
p4159
aS'promotions executive'
p4160
aS'promotions manager'
p4161
aS'promotions representative'
p4162
aS'property apartment manager'
p4163
aS'property business manager'
p4164
aS'property manager'
p4165
aS'propulsion engineer'
p4166
aS'prosthetic technician'
p4167
aS'psychiatric nurse'
p4168
aS'psychiatric nurse practitioner'
p4169
aS'psychiatric registered nurse'
p4170
aS'psychiatric technician'
p4171
aS'psychiatrist'
p4172
aS'psychologist'
p4173
aS'psychotherapist'
p4174
aS'public relations marketing specialist'
p4175
aS'pump operator'
p4176
aS'purchase analyst'
p4177
aS'purchase assistant'
p4178
aS'purchase buyer'
p4179
aS'purchase clerk'
p4180
aS'purchase coordinator'
p4181
aS'purchase specialist'
p4182
aS'purchase supervisor'
p4183
aS'purchasing agent'
p4184
aS'purchasing director'
p4185
aS'quality analyst'
p4186
aS'quality assurance analyst'
p4187
aS'quality assurance assistant'
p4188
aS'quality assurance associate'
p4189
aS'quality assurance auditor'
p4190
aS'quality assurance director'
p4191
aS'quality assurance inspector'
p4192
aS'quality assurance leader'
p4193
aS'quality assurance nurse'
p4194
aS'quality assurance representative'
p4195
aS'quality assurance specialist'
p4196
aS'quality assurance supervisor'
p4197
aS'quality assurance technician'
p4198
aS'quality assurance test engineer'
p4199
aS'quality assurance tester'
p4200
aS'quality auditor'
p4201
aS'quality control assistant'
p4202
aS'quality control associate'
p4203
aS'quality control auditor'
p4204
aS'quality control coordinator'
p4205
aS'quality control director'
p4206
aS'quality control specialist'
p4207
aS'quality control technician'
p4208
aS'quality coordinator'
p4209
aS'quality instructor'
p4210
aS'quality nurse'
p4211
aS'quality specialist'
p4212
aS'quality supervisor'
p4213
aS'quality technician'
p4214
aS'radar engineer'
p4215
aS'radar technician'
p4216
aS'radiation therapist'
p4217
aS'radiographer'
p4218
aS'radiological technologist'
p4219
aS'radiologist'
p4220
aS'radiology director'
p4221
aS'radiology manager'
p4222
aS'radiology technician'
p4223
aS'radiology technologist'
p4224
aS'reactor operator'
p4225
aS'real estate assistant'
p4226
aS'real estate broker'
p4227
aS'real estate director'
p4228
aS'real estate paralegal'
p4229
aS'real estate salesperson'
p4230
aS'realtor'
p4231
aS'receptionist assistant'
p4232
aS'receptionist clerk'
p4233
aS'record clerk'
p4234
aS'recreation assistant'
p4235
aS'recreation coordinator'
p4236
aS'recreation director'
p4237
aS'recreation specialist'
p4238
aS'recreation supervisor'
p4239
aS'recreation therapist'
p4240
aS'recreational therapist'
p4241
aS'recruit assistant'
p4242
aS'recruit coordinator'
p4243
aS'recruit manager'
p4244
aS'recruit professional'
p4245
aS'recruit specialist'
p4246
aS'recruiter assistant'
p4247
aS'recruiter coordinator'
p4248
aS'recruiter manager'
p4249
aS'recruiter specialist'
p4250
aS'recruitment manager'
p4251
aS'recruitment specialist'
p4252
aS'refrigeration engineer'
p4253
aS'refrigeration mechanic'
p4254
aS'regional account executive'
p4255
aS'regional clinical director'
p4256
aS'regional marketing director'
p4257
aS'regional marketing manager'
p4258
aS'regional sales director'
p4259
aS'regional sales engineer'
p4260
aS'regional sales representative'
p4261
aS'registered cardiac nurse'
p4262
aS'registered charge nurse'
p4263
aS'registered clinical nurse'
p4264
aS'registered dental assistant'
p4265
aS'registered dietitian'
p4266
aS'registered healthcare nurse'
p4267
aS'registered medical nurse'
p4268
aS'registered nurse director'
p4269
aS'registered nurse manager'
p4270
aS'registered nurse practitioner'
p4271
aS'registered nurse supervisor'
p4272
aS'registered nursing nurse'
p4273
aS'registered patient nurse'
p4274
aS'registered pediatric nurse'
p4275
aS'registered pharmacist'
p4276
aS'registered physical therapist'
p4277
aS'registered professional nurse'
p4278
aS'registered respiratory therapist'
p4279
aS'registered staff nurse'
p4280
aS'registered surgery nurse'
p4281
aS'registered surgical nurse'
p4282
aS'registered travel nurse'
p4283
aS'rehabilitation aide'
p4284
aS'rehabilitation coordinator'
p4285
aS'rehabilitation counselor'
p4286
aS'rehabilitation director'
p4287
aS'rehabilitation manager'
p4288
aS'rehabilitation specialist'
p4289
aS'rehabilitation technician'
p4290
aS'rehabilitation therapist'
p4291
aS'reimbursement coordinator'
p4292
aS'reimbursement manager'
p4293
aS'reimbursement representative'
p4294
aS'reimbursement specialist'
p4295
aS'relationship developer'
p4296
aS'repair manager'
p4297
aS'repair technician'
p4298
aS'repairman'
p4299
aS'report analyst'
p4300
aS'report developer'
p4301
aS'representative sales manager'
p4302
aS'representative teller'
p4303
aS'research biologist'
p4304
aS'research chemist'
p4305
aS'research laboratory manager'
p4306
aS'research nurse'
p4307
aS'research specialist'
p4308
aS'reservation agent'
p4309
aS'reservation manager'
p4310
aS'reservation specialist'
p4311
aS'reservation supervisor'
p4312
aS'residential property manager'
p4313
aS'respiratory care practitioner'
p4314
aS'respiratory director'
p4315
aS'respiratory rrt therapist'
p4316
aS'respiratory therapist'
p4317
aS'restaurant assistant'
p4318
aS'restaurant assistant manager'
p4319
aS'restaurant cook'
p4320
aS'restaurant executive'
p4321
aS'restaurant general assistant'
p4322
aS'restaurant kitchen manager'
p4323
aS'restaurant supervisor'
p4324
aS'retail agent'
p4325
aS'retail assistant'
p4326
aS'retail assistant manager'
p4327
aS'retail banker'
p4328
aS'retail cashier'
p4329
aS'retail clerk'
p4330
aS'retail consultant'
p4331
aS'retail coordinator'
p4332
aS'retail director'
p4333
aS'retail general manager'
p4334
aS'retail leader'
p4335
aS'retail manager'
p4336
aS'retail merchandiser'
p4337
aS'retail sales consultant'
p4338
aS'retail specialist'
p4339
aS'retail store assistant'
p4340
aS'retail supervisor'
p4341
aS'retirement administrator'
p4342
aS'retirement specialist'
p4343
aS'revenue accountant'
p4344
aS'revenue analyst'
p4345
aS'revenue director'
p4346
aS'revenue manager'
p4347
aS'rig operator'
p4348
aS'roadway engineer'
p4349
aS'roof contractor'
p4350
aS'room service attendant'
p4351
aS'route sales associate'
p4352
aS'route sales driver'
p4353
aS'route sales specialist'
p4354
aS'route salesperson'
p4355
aS'safety analyst'
p4356
aS'safety associate'
p4357
aS'safety coordinator'
p4358
aS'safety officer'
p4359
aS'safety specialist'
p4360
aS'safety supervisor'
p4361
aS'sales account executive'
p4362
aS'sales account manager'
p4363
aS'sales administrator'
p4364
aS'sales advisor'
p4365
aS'sales and marketing representative'
p4366
aS'sales b2b representative'
p4367
aS'sales broker'
p4368
aS'sales business representative'
p4369
aS'sales clerk'
p4370
aS'sales closer'
p4371
aS'sales coach'
p4372
aS'sales contractor'
p4373
aS'sales developer'
p4374
aS'sales driver'
p4375
aS'sales inside sales representative'
p4376
aS'sales leader'
p4377
aS'sales marketing associate'
p4378
aS'sales merchandiser'
p4379
aS'sales officer'
p4380
aS'sales outside sales executive'
p4381
aS'sales outside sales manager'
p4382
aS'sales outside sales professional'
p4383
aS'sales producer'
p4384
aS'sales professional'
p4385
aS'sales recruiter'
p4386
aS'sales salesperson'
p4387
aS'sales specialist'
p4388
aS'sales supervisor'
p4389
aS'sales technician'
p4390
aS'sales territory manager'
p4391
aS'sales trainer'
p4392
aS'salon coordinator'
p4393
aS'salon leader'
p4394
aS'salon manager'
p4395
aS'sap abap developer'
p4396
aS'sap administrator'
p4397
aS'sap analyst'
p4398
aS'sap architect'
p4399
aS'sap consultant'
p4400
aS'sap developer'
p4401
aS'sap manager'
p4402
aS'sap specialist'
p4403
aS'sas analyst'
p4404
aS'sas developer'
p4405
aS'sas programmer'
p4406
aS'school bus driver'
p4407
aS'science instructor'
p4408
aS'science teacher'
p4409
aS'sec accountant'
p4410
aS'secretary assistant'
p4411
aS'security architect'
p4412
aS'security officer'
p4413
aS'security system engineer'
p4414
aS'sell associate'
p4415
aS'sell professional'
p4416
aS'sell specialist'
p4417
aS'senior accountant'
p4418
aS'senior tax accountant'
p4419
aS'seo specialist'
p4420
aS'server administrator'
p4421
aS'server engineer'
p4422
aS'server manager'
p4423
aS'server support technician'
p4424
aS'service customer service representative'
p4425
aS'service engineer'
p4426
aS'sharepoint administrator'
p4427
aS'sharepoint analyst'
p4428
aS'sharepoint architect'
p4429
aS'sharepoint developer'
p4430
aS'sharepoint engineer'
p4431
aS'sheet metal mechanic'
p4432
aS'sheet metal worker'
p4433
aS'shipping associate'
p4434
aS'shipping clerk'
p4435
aS'shipping coordinator'
p4436
aS'shipping manager'
p4437
aS'shipping supervisor'
p4438
aS'shoe designer'
p4439
aS'shop manager'
p4440
aS'sign language interpreter'
p4441
aS'sleep technician'
p4442
aS'soa architect'
p4443
aS'social service assistant'
p4444
aS'social service coordinator'
p4445
aS'social service director'
p4446
aS'social service manager'
p4447
aS'social service specialist'
p4448
aS'social service worker'
p4449
aS'social studies teacher'
p4450
aS'software analyst'
p4451
aS'software application developer'
p4452
aS'software application engineer'
p4453
aS'software architect'
p4454
aS'software design engineer'
p4455
aS'software development director'
p4456
aS'software development engineer'
p4457
aS'software development manager'
p4458
aS'software director'
p4459
aS'software embedded engineer'
p4460
aS'software manager'
p4461
aS'software principal'
p4462
aS'software programmer'
p4463
aS'software quality assurance engineer'
p4464
aS'software quality assurance tester'
p4465
aS'software specialist'
p4466
aS'software support analyst'
p4467
aS'software support engineer'
p4468
aS'software support specialist'
p4469
aS'software support technician'
p4470
aS'software system developer'
p4471
aS'software system engineer'
p4472
aS'software technician'
p4473
aS'software test analyst'
p4474
aS'software test engineer'
p4475
aS'software tester'
p4476
aS'software trainer'
p4477
aS'soil technician'
p4478
aS'solaris administrator'
p4479
aS'solder technician'
p4480
aS'solution architect'
p4481
aS'sonographer'
p4482
aS'sound engineer'
p4483
aS'sox analyst'
p4484
aS'spa coordinator'
p4485
aS'spa manager'
p4486
aS'special education assistant'
p4487
aS'special education teacher'
p4488
aS'speech language pathologist'
p4489
aS'speech language therapist'
p4490
aS'speech pathologist'
p4491
aS'speech therapist'
p4492
aS'sport director'
p4493
aS'sport manager'
p4494
aS'spray technician'
p4495
aS'sprinkler fitter'
p4496
aS'sql data analyst'
p4497
aS'sql database administrator'
p4498
aS'sql database analyst'
p4499
aS'sql database architect'
p4500
aS'sql database developer'
p4501
aS'sql database report developer'
p4502
aS'sql dba'
p4503
aS'sql developer'
p4504
aS'staff nurse'
p4505
aS'staff registered nurse'
p4506
aS'state tested nursing assistant'
p4507
aS'statistical analyst'
p4508
aS'statistical developer'
p4509
aS'statistical programmer'
p4510
aS'steam engineer'
p4511
aS'stock broker'
p4512
aS'stockroom associate'
p4513
aS'stockroom coordinator'
p4514
aS'stone mason'
p4515
aS'store assistant'
p4516
aS'store assistant manager'
p4517
aS'store associate'
p4518
aS'store cashier'
p4519
aS'store clerk'
p4520
aS'store consultant'
p4521
aS'store detective'
p4522
aS'store executive'
p4523
aS'store leader'
p4524
aS'store manager assistant'
p4525
aS'store retail manager'
p4526
aS'store sales leader'
p4527
aS'store supervisor'
p4528
aS'strategic planning analyst'
p4529
aS'strategic planning developer'
p4530
aS'strategic planning director'
p4531
aS'strategic planning executive'
p4532
aS'strategic planning manager'
p4533
aS'structural designer'
p4534
aS'structural ironworker'
p4535
aS'student teacher'
p4536
aS'studio manager'
p4537
aS'studio photographer'
p4538
aS'substance abuse counselor'
p4539
aS'supply chain analyst'
p4540
aS'supply chain director'
p4541
aS'supply chain manager'
p4542
aS'supply chain planner'
p4543
aS'supply chain specialist'
p4544
aS'supply coordinator'
p4545
aS'support analyst'
p4546
aS'support call center representative'
p4547
aS'support help desk analyst'
p4548
aS'support help desk technician'
p4549
aS'support technician'
p4550
aS'surgery nurse'
p4551
aS'surgery scheduler'
p4552
aS'surgery technician'
p4553
aS'surgical assistant'
p4554
aS'surgical coordinator'
p4555
aS'surgical director'
p4556
aS'surgical nurse'
p4557
aS'surgical registered nurse'
p4558
aS'surgical technician'
p4559
aS'surgical technologist'
p4560
aS'survey project manager'
p4561
aS'survey technician'
p4562
aS'swim instructor'
p4563
aS'switchboard operator'
p4564
aS'sybase developer'
p4565
aS'system administration manager'
p4566
aS'system administrator'
p4567
aS'system analyst'
p4568
aS'system business analyst'
p4569
aS'system design engineer'
p4570
aS'system network administrator'
p4571
aS'tax accountant'
p4572
aS'tax advisor'
p4573
aS'tax analyst'
p4574
aS'tax associate'
p4575
aS'tax consultant'
p4576
aS'tax director'
p4577
aS'tax manager'
p4578
aS'tax preparation manager'
p4579
aS'tax professional'
p4580
aS'tax specialist'
p4581
aS'tax supervisor'
p4582
aS'taxi driver'
p4583
aS'teacher aide'
p4584
aS'teacher assistant'
p4585
aS'teacher counselor'
p4586
aS'technical analyst'
p4587
aS'technical architect'
p4588
aS'technical business analyst'
p4589
aS'technical consultant'
p4590
aS'technical editor'
p4591
aS'technical engineer'
p4592
aS'technical manager'
p4593
aS'technical project manager'
p4594
aS'technical sales engineer'
p4595
aS'technical sales representative'
p4596
aS'technical support agent'
p4597
aS'technical support analyst'
p4598
aS'technical support associate'
p4599
aS'technical support manager'
p4600
aS'technical support professional'
p4601
aS'technical support representative'
p4602
aS'technical support supervisor'
p4603
aS'technical system analyst'
p4604
aS'technician support analyst'
p4605
aS'technician writer'
p4606
aS'technology instructor'
p4607
aS'telecom analyst'
p4608
aS'telecom engineer'
p4609
aS'telecom manager'
p4610
aS'telecom representative'
p4611
aS'telecom technician'
p4612
aS'telecommunications administrator'
p4613
aS'telecommunications analyst'
p4614
aS'telecommunications manager'
p4615
aS'telemarketing agent'
p4616
aS'telemarketing manager'
p4617
aS'telemarketing representative'
p4618
aS'telemarketing sales representative'
p4619
aS'telemetry technician'
p4620
aS'telephony engineer'
p4621
aS'telesales agent'
p4622
aS'telesales representative'
p4623
aS'teller manager'
p4624
aS'teller representative'
p4625
aS'teller supervisor'
p4626
aS'territory account executive'
p4627
aS'territory account manager'
p4628
aS'territory manager representative'
p4629
aS'territory outside sales manager'
p4630
aS'territory representative'
p4631
aS'test case developer'
p4632
aS'test coordinator'
p4633
aS'test developer'
p4634
aS'test director'
p4635
aS'test manager'
p4636
aS'tester'
p4637
aS'theater manager'
p4638
aS'therapeutic recreation director'
p4639
aS'therapeutic recreation specialist'
p4640
aS'therapist assistant'
p4641
aS'therapy assistant'
p4642
aS'ticketing agent'
p4643
aS'tig welder'
p4644
aS'tire technician'
p4645
aS'title assistant'
p4646
aS'title officer'
p4647
aS'toddler teacher'
p4648
aS'tool maker'
p4649
aS'tour manager'
p4650
aS'tour operator'
p4651
aS'tractor trailer driver'
p4652
aS'trade show coordinator'
p4653
aS'trademark paralegal'
p4654
aS'traffic engineer'
p4655
aS'trailer mechanic'
p4656
aS'training administrator'
p4657
aS'training analyst'
p4658
aS'training assistant'
p4659
aS'training associate'
p4660
aS'training consultant'
p4661
aS'training coordinator'
p4662
aS'training developer'
p4663
aS'training director'
p4664
aS'training instructor'
p4665
aS'training professional'
p4666
aS'training program assistant'
p4667
aS'training program developer'
p4668
aS'training program manager'
p4669
aS'training representative'
p4670
aS'training supervisor'
p4671
aS'training technician'
p4672
aS'transcriptionist'
p4673
aS'transplant coordinator'
p4674
aS'transport driver'
p4675
aS'transportation supervisor'
p4676
aS'travel counselor'
p4677
aS'travel nurse'
p4678
aS'travel registered nurse'
p4679
aS'travel specialist'
p4680
aS'treatment plant operator'
p4681
aS'tree trimmer'
p4682
aS'trial attorney'
p4683
aS'truck cdl driver'
p4684
aS'truck driver'
p4685
aS'tv technician'
p4686
aS'ultrasound technician'
p4687
aS'ultrasound technologist'
p4688
aS'underwriter manager'
p4689
aS'underwriter specialist'
p4690
aS'unit clerk'
p4691
aS'unit secretary'
p4692
aS'unix administrator'
p4693
aS'unix analyst'
p4694
aS'unix developer'
p4695
aS'unix engineer'
p4696
aS'unix manager'
p4697
aS'unload supervisor'
p4698
aS'urban planner'
p4699
aS'utilization nurse'
p4700
aS'valet'
p4701
aS'valet park attendant'
p4702
aS'vascular technician'
p4703
aS'vascular technologist'
p4704
aS'vb developer'
p4705
aS'vb.net developer'
p4706
aS'vba developer'
p4707
aS'vehicle attendant'
p4708
aS'vehicle operator'
p4709
aS'vehicle service attendant'
p4710
aS'vet technician'
p4711
aS'veterinary assistant'
p4712
aS'veterinary receptionist'
p4713
aS'veterinary technician'
p4714
aS'video editor'
p4715
aS'video engineer'
p4716
aS'video interpreter'
p4717
aS'video manager'
p4718
aS'video technician'
p4719
aS'visual basic developer'
p4720
aS'visual designer'
p4721
aS'visual developer'
p4722
aS'visual manager'
p4723
aS'visual merchandiser'
p4724
aS'vocational counselor'
p4725
aS'vocational rehabilitation counselor'
p4726
aS'warehouse assistant'
p4727
aS'warehouse clerk'
p4728
aS'warehouse coordinator'
p4729
aS'warehouse driver'
p4730
aS'warehouse handler'
p4731
aS'warehouse laborer'
p4732
aS'warehouse material handler'
p4733
aS'warehouse operator'
p4734
aS'warehouse specialist'
p4735
aS'warehouse supervisor'
p4736
aS'warehouse technician'
p4737
aS'warehouseman'
p4738
aS'wastewater operator'
p4739
aS'wastewater treatment operator'
p4740
aS'water resource engineer'
p4741
aS'web based application developer'
p4742
aS'web graphic designer'
p4743
aS'web service developer'
p4744
aS'web software developer'
p4745
aS'weblogic administrator'
p4746
aS'websphere administrator'
p4747
aS'websphere developer'
p4748
aS'welding inspector'
p4749
aS'welding supervisor'
p4750
aS'wellness coordinator'
p4751
aS'wellness director'
p4752
aS'wellness nurse'
p4753
aS'window server administrator'
p4754
aS'window server engineer'
p4755
aS'wine consultant'
p4756
aS'wine manager'
p4757
aS'wireless consultant'
p4758
aS'wireless engineer'
p4759
aS'wireless manager'
p4760
aS'wireless representative'
p4761
aS'wireless technician'
p4762
aS'word processing specialist'
p4763
aS'writer editor'
p4764
aS'x-ray technician'
p4765
aS'x-ray technologist'
p4766
a.
